LIBRARY ASPELL-15.DLL
EXPORTS
    _ZN24aspeller_default_suggest11SuggestImpl5scoreEPKcS2_ @1
    _ZN24aspeller_default_suggest11SuggestImpl7suggestEPKc @2
    _ZN24aspeller_default_suggest11SuggestImpl8set_modeEN7acommon10ParmStringE @3
    _ZN24aspeller_default_suggest11SuggestImplD0Ev @4
    _ZN24aspeller_default_suggest11SuggestImplD1Ev @5
    _ZN24aspeller_default_suggest12OriginalWordC1ERKN7acommon6StringES4_S4_S4_N8aspeller11CasePatternE @6
    _ZN24aspeller_default_suggest18SuggestionListImpl6assignEPKN8aspeller14SuggestionListE @7
    _ZN24aspeller_default_suggest18SuggestionListImplD0Ev @8
    _ZN24aspeller_default_suggest18SuggestionListImplD1Ev @9
    _ZN24aspeller_default_suggest7Working10score_listEv @10
    _ZN24aspeller_default_suggest7Working10try_othersEv @11
    _ZN24aspeller_default_suggest7Working12add_nearmissEPKcibbPN7acommon14VirEnumerationIS2_EE @12
    _ZN24aspeller_default_suggest7Working15get_suggestionsERSt6vectorIN7acommon6StringESaIS3_EE @13
    _ZN24aspeller_default_suggest7Working17skip_first_coupleERSt14_List_iteratorINS_14ScoreWordSoundERS2_PS2_E @14
    _ZN24aspeller_default_suggest7Working8transferEv @15
    _ZN24aspeller_default_suggest7Working9try_soundEPKci @16
    _ZN28aspeller_default_readonly_ws10ReadOnlyWS25SoundslikeWordsEmulSingle4nextEv @17
    _ZN28aspeller_default_readonly_ws10ReadOnlyWS25SoundslikeWordsEmulSingle6assignEPKN7acommon14VirEnumerationIN8aspeller13BasicWordInfoEEE @18
    _ZN28aspeller_default_readonly_ws10ReadOnlyWS25SoundslikeWordsEmulSingleD0Ev @19
    _ZN28aspeller_default_readonly_ws10ReadOnlyWS25SoundslikeWordsEmulSingleD1Ev @20
    _ZN28aspeller_default_readonly_ws10ReadOnlyWS4loadEN7acommon10ParmStringEPNS1_6ConfigEPN8aspeller11SpellerImplEPKNS5_16LocalWordSetInfoE @21
    _ZN28aspeller_default_readonly_ws10ReadOnlyWSD0Ev @22
    _ZN28aspeller_default_readonly_ws10ReadOnlyWSD1Ev @23
    _ZN28aspeller_default_readonly_ws6createEN7acommon10ParmStringEPNS0_17StringEnumerationERKN8aspeller8LanguageE @24
    _ZN28aspeller_default_writable_wl10WritableWS13set_lang_hookEPN7acommon6ConfigE @25
    _ZN28aspeller_default_writable_wl10WritableWS3addEN7acommon10ParmStringE @26
    _ZN28aspeller_default_writable_wl10WritableWS3addEN7acommon10ParmStringES2_ @27
    _ZN28aspeller_default_writable_wl10WritableWS4saveERN7acommon7FStreamENS1_10ParmStringE @28
    _ZN28aspeller_default_writable_wl10WritableWS5clearEv @29
    _ZN28aspeller_default_writable_wl10WritableWS5mergeERN7acommon7FStreamENS1_10ParmStringEPNS1_6ConfigE @30
    _ZN28aspeller_default_writable_wl10WritableWSD0Ev @31
    _ZN28aspeller_default_writable_wl10WritableWSD1Ev @32
    _ZN30aspeller_default_writable_repl13WritableReplS19ElementsVirEmulImpl4nextEv @33
    _ZN30aspeller_default_writable_repl13WritableReplS19ElementsVirEmulImpl6assignEPKN7acommon14VirEnumerationIN8aspeller15ReplacementListEEE @34
    _ZN30aspeller_default_writable_repl13WritableReplS19ElementsVirEmulImplD0Ev @35
    _ZN30aspeller_default_writable_repl13WritableReplS19ElementsVirEmulImplD1Ev @36
    _ZN30aspeller_default_writable_repl13WritableReplS19RealReplacementList3addEN7acommon10ParmStringE @37
    _ZN30aspeller_default_writable_repl13WritableReplS19RealReplacementList5eraseEN7acommon10ParmStringE @38
    _ZN30aspeller_default_writable_repl13WritableReplS19RealReplacementList6existsEN7acommon10ParmStringE @39
    _ZN30aspeller_default_writable_repl13WritableReplS3addEN7acommon10ParmStringES2_ @40
    _ZN30aspeller_default_writable_repl13WritableReplS3addEN7acommon10ParmStringES2_S2_ @41
    _ZN30aspeller_default_writable_repl13WritableReplS4saveERN7acommon7FStreamENS1_10ParmStringE @42
    _ZN30aspeller_default_writable_repl13WritableReplS5clearEv @43
    _ZN30aspeller_default_writable_repl13WritableReplS5mergeERN7acommon7FStreamENS1_10ParmStringEPNS1_6ConfigE @44
    _ZN30aspeller_default_writable_repl13WritableReplSD0Ev @45
    _ZN30aspeller_default_writable_repl13WritableReplSD1Ev @46
    _ZN7acommon10BetterList12set_cur_rankEv @47
    _ZN7acommon10BetterList17set_best_from_curEv @48
    _ZN7acommon10BetterList4initEv @49
    _ZN7acommon10BetterListC1Ev @50
    _ZN7acommon10BetterListC2Ev @51
    _ZN7acommon10BetterListD0Ev @52
    _ZN7acommon10BetterListD1Ev @53
    _ZN7acommon10BetterSize12set_cur_rankEv @54
    _ZN7acommon10BetterSize17set_best_from_curEv @55
    _ZN7acommon10BetterSize4initEv @56
    _ZN7acommon10BetterSizeD0Ev @57
    _ZN7acommon10BetterSizeD1Ev @58
    _ZN7acommon10BlockSListIKN8aspeller12SimpleStringEE5clearEv @59
    _ZN7acommon10BlockSListIKN8aspeller12SimpleStringEE9add_blockEj @60
    _ZN7acommon10BlockSListIKNS_6StringEE5clearEv @61
    _ZN7acommon10BlockSListIKNS_6StringEE9add_blockEj @62
    _ZN7acommon10BlockSListISt4pairIKN8aspeller12SimpleStringEN30aspeller_default_writable_repl13WritableReplS12RealReplListEEE5clearEv @63
    _ZN7acommon10BlockSListISt4pairIKN8aspeller12SimpleStringEN30aspeller_default_writable_repl13WritableReplS12RealReplListEEE9add_blockEj @64
    _ZN7acommon10BlockSListISt4pairIKN8aspeller12SimpleStringESt6vectorIPKcSaIS7_EEEE5clearEv @65
    _ZN7acommon10BlockSListISt4pairIKN8aspeller12SimpleStringESt6vectorIPKcSaIS7_EEEE9add_blockEj @66
    _ZN7acommon10CharLookup5resetEv @67
    _ZN7acommon10CharLookup6insertEcc @68
    _ZN7acommon10CharVector5writeENS_10ParmStringE @69
    _ZN7acommon10CharVector5writeEPKcj @70
    _ZN7acommon10CharVector5writeEc @71
    _ZN7acommon10CharVectorD0Ev @72
    _ZN7acommon10CharVectorD1Ev @73
    _ZN7acommon10SgmlFilter12process_charEj @74
    _ZN7acommon10SgmlFilter5resetEv @75
    _ZN7acommon10SgmlFilter5setupEPNS_6ConfigE @76
    _ZN7acommon10SgmlFilter7processERPNS_10FilterCharES3_ @77
    _ZN7acommon10SgmlFilterD0Ev @78
    _ZN7acommon10SgmlFilterD1Ev @79
    _ZN7acommon10StringList3addENS_10ParmStringE @80
    _ZN7acommon10StringList4copyERKS0_ @81
    _ZN7acommon10StringList5clearEv @82
    _ZN7acommon10StringList6assignEPKS0_ @83
    _ZN7acommon10StringList6removeENS_10ParmStringE @84
    _ZN7acommon10StringList7destroyEv @85
    _ZN7acommon10StringListD0Ev @86
    _ZN7acommon10StringListD1Ev @87
    _ZN7acommon10mode_errorE @88 DATA
    _ZN7acommon10new_configEv @89
    _ZN7acommon11EmailFilter10QuoteChars3addENS_10ParmStringE @90
    _ZN7acommon11EmailFilter10QuoteChars5clearEv @91
    _ZN7acommon11EmailFilter10QuoteChars6removeENS_10ParmStringE @92
    _ZN7acommon11EmailFilter10QuoteCharsD0Ev @93
    _ZN7acommon11EmailFilter10QuoteCharsD1Ev @94
    _ZN7acommon11EmailFilter5resetEv @95
    _ZN7acommon11EmailFilter5setupEPNS_6ConfigE @96
    _ZN7acommon11EmailFilter7processERPNS_10FilterCharES3_ @97
    _ZN7acommon11EmailFilterD0Ev @98
    _ZN7acommon11EmailFilterD1Ev @99
    _ZN7acommon11SgmlDecoder5resetEv @100
    _ZN7acommon11SgmlDecoder5setupEPNS_6ConfigE @101
    _ZN7acommon11SgmlDecoder7processERPNS_10FilterCharES3_ @102
    _ZN7acommon11SgmlDecoderD0Ev @103
    _ZN7acommon11SgmlDecoderD1Ev @104
    _ZN7acommon11SgmlEncoder5resetEv @105
    _ZN7acommon11SgmlEncoder5setupEPNS_6ConfigE @106
    _ZN7acommon11SgmlEncoder7processERPNS_10FilterCharES3_ @107
    _ZN7acommon11SgmlEncoderD0Ev @108
    _ZN7acommon11SgmlEncoderD1Ev @109
    _ZN7acommon11ToUniLookup5resetEv @110
    _ZN7acommon11ToUniLookup6insertEcj @111
    _ZN7acommon11file_existsENS_10ParmStringE @112
    _ZN7acommon11mode_stringE @113 DATA
    _ZN7acommon11new_convertERNS_6ConfigENS_10ParmStringES2_ @114
    _ZN7acommon11new_spellerEPNS_6ConfigE @115
    _ZN7acommon11remove_fileENS_10ParmStringE @116
    _ZN7acommon11rename_fileENS_10ParmStringES0_ @117
    _ZN7acommon12CanHaveErrorC1EPNS_5ErrorE @118
    _ZN7acommon12CanHaveErrorC1ERKS0_ @119
    _ZN7acommon12CanHaveErrorC2EPNS_5ErrorE @120
    _ZN7acommon12CanHaveErrorC2ERKS0_ @121
    _ZN7acommon12CanHaveErrorD0Ev @122
    _ZN7acommon12CanHaveErrorD1Ev @123
    _ZN7acommon12CanHaveErrorD2Ev @124
    _ZN7acommon12CanHaveErroraSERKS0_ @125
    _ZN7acommon12DecodeLookup4initENS_10ParmStringERNS_6ConfigE @126
    _ZN7acommon12DictInfoList4fillERNS_13MDInfoListAllEPNS_6ConfigE @127
    _ZN7acommon12DictInfoList5clearEv @128
    _ZN7acommon12DictInfoList9proc_fileERNS_13MDInfoListAllEPNS_6ConfigEPKcS6_jPKNS_10ModuleInfoE @129
    _ZN7acommon12EncodeLookup4initENS_10ParmStringERNS_6ConfigE @130
    _ZN7acommon12PosibErrBase3delEv @131
    _ZN7acommon12PosibErrBase3setEPKNS_9ErrorInfoENS_10ParmStringES4_S4_S4_ @132
    _ZN7acommon12PosibErrBase7destroyEv @133
    _ZN7acommon12PosibErrBase7releaseEv @134
    _ZN7acommon12PosibErrBase9with_fileENS_10ParmStringE @135
    _ZN7acommon12StringBuffer4sbufE @136 DATA
    _ZN7acommon12StringBuffer5allocEj @137
    _ZN7acommon12StringBufferC1Ev @138
    _ZN7acommon12StringBufferC2Ev @139
    _ZN7acommon12filter_modesE @140 DATA
    _ZN7acommon12getdata_pairERNS_7IStreamERNS_6StringES3_ @141
    _ZN7acommon12setup_filterERNS_6FilterEPNS_6ConfigEbbb @142
    _ZN7acommon13FromUniLookup5resetEv @143
    _ZN7acommon13FromUniLookup6insertEjc @144
    _ZN7acommon13MDInfoListAll17fill_helper_listsERKNS_10StringListE @145
    _ZN7acommon13MDInfoListAll4fillEPNS_6ConfigERNS_10StringListE @146
    _ZN7acommon13MDInfoListAll5clearEv @147
    _ZN7acommon13StringIStream4readEPvj @148
    _ZN7acommon13StringIStream7getlineERNS_6StringEc @149
    _ZN7acommon13StringIStreamD0Ev @150
    _ZN7acommon13StringIStreamD1Ev @151
    _ZN7acommon13StringMapNodeC1ERKS0_ @152
    _ZN7acommon13StringMapNodeC2ERKS0_ @153
    _ZN7acommon13StringMapNodeD1Ev @154
    _ZN7acommon13StringMapNodeD2Ev @155
    _ZN7acommon13get_file_nameEPKc @156
    _ZN7acommon13new_tokenizerEPNS_7SpellerE @157
    _ZN7acommon13truncate_fileERNS_7FStreamENS_10ParmStringE @158
    _ZN7acommon14GenericCopyPtrIN8aspeller10SoundslikeENS_8ClonePtrIS2_E5ParmsEE6assignEPKS2_RKS5_ @159
    _ZN7acommon14GenericCopyPtrIN8aspeller10SoundslikeENS_8ClonePtrIS2_E5ParmsEED1Ev @160
    _ZN7acommon14GenericCopyPtrIN8aspeller11PhonetParmsENS_8ClonePtrIS2_E5ParmsEE6assignEPKS2_RKS5_ @161
    _ZN7acommon14GenericCopyPtrIN8aspeller11PhonetParmsENS_8ClonePtrIS2_E5ParmsEEC1ERKS6_ @162
    _ZN7acommon14GenericCopyPtrIN8aspeller8LanguageENS_7CopyPtrIS2_E5ParmsEE6assignEPKS2_RKS5_ @163
    _ZN7acommon14GenericCopyPtrINS_13hash_multisetIN8aspeller12SimpleStringEN28aspeller_default_writable_wl10WritableWS4HashENS5_5EqualEEENS_7CopyPtrIS8_E5ParmsEED1Ev @164
    _ZN7acommon14GenericCopyPtrINS_14VirEnumerationIN8aspeller13BasicWordInfoEEENS_8ClonePtrIS4_E5ParmsEE6assignEPKS4_RKS7_ @165
    _ZN7acommon14GenericCopyPtrINS_14VirEnumerationIN8aspeller13BasicWordInfoEEENS_8ClonePtrIS4_E5ParmsEEC1ERKS8_ @166
    _ZN7acommon14GenericCopyPtrINS_5ErrorENS_7CopyPtrIS1_E5ParmsEE5resetEPS1_RKS4_ @167
    _ZN7acommon14GenericCopyPtrINS_5ErrorENS_7CopyPtrIS1_E5ParmsEE6assignEPKS1_RKS4_ @168
    _ZN7acommon14ModuleInfoList4fillERNS_13MDInfoListAllEPNS_6ConfigE @169
    _ZN7acommon14ModuleInfoList4findEPKcj @170
    _ZN7acommon14ModuleInfoList5clearEv @171
    _ZN7acommon14ModuleInfoList9proc_infoERNS_13MDInfoListAllEPNS_6ConfigEPKcjRNS_7IStreamE @172
    _ZN7acommon14TokenizerBasic7advanceEv @173
    _ZN7acommon14TokenizerBasicD0Ev @174
    _ZN7acommon14TokenizerBasicD1Ev @175
    _ZN7acommon14VirEnumerationIN8aspeller12LocalWordSetEED0Ev @176
    _ZN7acommon14VirEnumerationIN8aspeller12LocalWordSetEED1Ev @177
    _ZN7acommon14VirEnumerationIN8aspeller13BasicWordInfoEED0Ev @178
    _ZN7acommon14VirEnumerationIN8aspeller13BasicWordInfoEED1Ev @179
    _ZN7acommon14VirEnumerationIN8aspeller14SoundslikeWordEED0Ev @180
    _ZN7acommon14VirEnumerationIN8aspeller14SoundslikeWordEED1Ev @181
    _ZN7acommon14VirEnumerationIN8aspeller15ReplacementListEED0Ev @182
    _ZN7acommon14VirEnumerationIN8aspeller15ReplacementListEED1Ev @183
    _ZN7acommon14VirEnumerationIPKcED0Ev @184
    _ZN7acommon14VirEnumerationIPKcED1Ev @185
    _ZN7acommon14VirEnumerationIPN8aspeller7DataSetEED0Ev @186
    _ZN7acommon14VirEnumerationIPN8aspeller7DataSetEED1Ev @187
    _ZN7acommon14delete_spellerEPNS_7SpellerE @188
    _ZN7acommon14figure_out_dirENS_10ParmStringES0_ @189
    _ZN7acommon14find_word_listEPNS_6ConfigE @190
    _ZN7acommon14new_string_mapEv @191
    _ZN7acommon14new_tex_filterEv @192
    _ZN7acommon14new_url_filterEv @193
    _ZN7acommon14reload_filtersEPNS_7SpellerE @194
    _ZN7acommon15DocumentChecker14set_status_funEPFvPvNS_5TokenEiES1_ @195
    _ZN7acommon15DocumentChecker16next_misspellingEv @196
    _ZN7acommon15DocumentChecker5resetEv @197
    _ZN7acommon15DocumentChecker5setupEPNS_9TokenizerEPNS_7SpellerEPNS_6FilterE @198
    _ZN7acommon15DocumentChecker7processEPKci @199
    _ZN7acommon15DocumentCheckerC1Ev @200
    _ZN7acommon15DocumentCheckerC2Ev @201
    _ZN7acommon15DocumentCheckerD0Ev @202
    _ZN7acommon15DocumentCheckerD1Ev @203
    _ZN7acommon15DocumentCheckerD2Ev @204
    _ZN7acommon15new_sgml_filterEv @205
    _ZN7acommon15new_string_listEv @206
    _ZN7acommon15tex_options_endE @207 DATA
    _ZN7acommon16HT_ConstIteratorISt4pairIKN8aspeller12SimpleStringEN30aspeller_default_writable_repl13WritableReplS12RealReplListEEE3advEv @208
    _ZN7acommon16IndividualFilterD0Ev @209
    _ZN7acommon16IndividualFilterD1Ev @210
    _ZN7acommon16ItemizeTokenizer4nextEv @211
    _ZN7acommon16ItemizeTokenizerC1EPKc @212
    _ZN7acommon16ItemizeTokenizerC2EPKc @213
    _ZN7acommon16ItemizeTokenizerD1Ev @214
    _ZN7acommon16ItemizeTokenizerD2Ev @215
    _ZN7acommon16ModeNotifierImpl12item_updatedEPKNS_7KeyInfoENS_10ParmStringE @216
    _ZN7acommon16ModeNotifierImplD0Ev @217
    _ZN7acommon16ModeNotifierImplD1Ev @218
    _ZN7acommon16MutableContainerD0Ev @219
    _ZN7acommon16MutableContainerD1Ev @220
    _ZN7acommon16MutableContainerD2Ev @221
    _ZN7acommon16add_possible_dirENS_10ParmStringES0_ @222
    _ZN7acommon16new_basic_configEv @223
    _ZN7acommon16new_email_filterEv @224
    _ZN7acommon16new_sgml_decoderEv @225
    _ZN7acommon16new_sgml_encoderEv @226
    _ZN7acommon16sgml_options_endE @227 DATA
    _ZN7acommon17MDInfoListofLists4findERKNS_10StringListE @228
    _ZN7acommon17MDInfoListofLists5clearEPNS_6ConfigE @229
    _ZN7acommon17MDInfoListofLists9get_listsEPNS_6ConfigE @230
    _ZN7acommon17MDInfoListofListsC1Ev @231
    _ZN7acommon17MDInfoListofListsC2Ev @232
    _ZN7acommon17MDInfoListofListsD1Ev @233
    _ZN7acommon17MDInfoListofListsD2Ev @234
    _ZN7acommon17StringEnumerationD0Ev @235
    _ZN7acommon17StringEnumerationD1Ev @236
    _ZN7acommon17StringEnumerationD2Ev @237
    _ZN7acommon17email_options_endE @238 DATA
    _ZN7acommon17get_speller_classEPNS_6ConfigE @239
    _ZN7acommon17read_in_char_dataERNS_6ConfigENS_10ParmStringERNS_11ToUniLookupERNS_13FromUniLookupE @240
    _ZN7acommon17tex_options_beginE @241 DATA
    _ZN7acommon18KeyInfoEnumerationD0Ev @242
    _ZN7acommon18KeyInfoEnumerationD1Ev @243
    _ZN7acommon18MakeVirEnumerationIN24aspeller_default_suggest18SuggestionListImpl5ParmsENS_17StringEnumerationEE4nextEv @244
    _ZN7acommon18MakeVirEnumerationIN24aspeller_default_suggest18SuggestionListImpl5ParmsENS_17StringEnumerationEE6assignEPKS4_ @245
    _ZN7acommon18MakeVirEnumerationIN24aspeller_default_suggest18SuggestionListImpl5ParmsENS_17StringEnumerationEED0Ev @246
    _ZN7acommon18MakeVirEnumerationIN24aspeller_default_suggest18SuggestionListImpl5ParmsENS_17StringEnumerationEED1Ev @247
    _ZN7acommon18MakeVirEnumerationIN28aspeller_default_readonly_ws10ReadOnlyWS13ElementsParmsENS_14VirEnumerationIN8aspeller13BasicWordInfoEEEE4nextEv @248
    _ZN7acommon18MakeVirEnumerationIN28aspeller_default_readonly_ws10ReadOnlyWS13ElementsParmsENS_14VirEnumerationIN8aspeller13BasicWordInfoEEEE6assignEPKS7_ @249
    _ZN7acommon18MakeVirEnumerationIN28aspeller_default_readonly_ws10ReadOnlyWS13ElementsParmsENS_14VirEnumerationIN8aspeller13BasicWordInfoEEEED0Ev @250
    _ZN7acommon18MakeVirEnumerationIN28aspeller_default_readonly_ws10ReadOnlyWS13ElementsParmsENS_14VirEnumerationIN8aspeller13BasicWordInfoEEEED1Ev @251
    _ZN7acommon18MakeVirEnumerationIN28aspeller_default_readonly_ws10ReadOnlyWS20SoundslikeWordsParmsENS_14VirEnumerationIN8aspeller13BasicWordInfoEEEE4nextEv @252
    _ZN7acommon18MakeVirEnumerationIN28aspeller_default_readonly_ws10ReadOnlyWS20SoundslikeWordsParmsENS_14VirEnumerationIN8aspeller13BasicWordInfoEEEE6assignEPKS7_ @253
    _ZN7acommon18MakeVirEnumerationIN28aspeller_default_readonly_ws10ReadOnlyWS20SoundslikeWordsParmsENS_14VirEnumerationIN8aspeller13BasicWordInfoEEEED0Ev @254
    _ZN7acommon18MakeVirEnumerationIN28aspeller_default_readonly_ws10ReadOnlyWS20SoundslikeWordsParmsENS_14VirEnumerationIN8aspeller13BasicWordInfoEEEED1Ev @255
    _ZN7acommon18MakeVirEnumerationIN28aspeller_default_readonly_ws10ReadOnlyWS23SoundslikeElementsParmsENS_14VirEnumerationIN8aspeller14SoundslikeWordEEEE4nextEv @256
    _ZN7acommon18MakeVirEnumerationIN28aspeller_default_readonly_ws10ReadOnlyWS23SoundslikeElementsParmsENS_14VirEnumerationIN8aspeller14SoundslikeWordEEEE6assignEPKS7_ @257
    _ZN7acommon18MakeVirEnumerationIN28aspeller_default_readonly_ws10ReadOnlyWS23SoundslikeElementsParmsENS_14VirEnumerationIN8aspeller14SoundslikeWordEEEED0Ev @258
    _ZN7acommon18MakeVirEnumerationIN28aspeller_default_readonly_ws10ReadOnlyWS23SoundslikeElementsParmsENS_14VirEnumerationIN8aspeller14SoundslikeWordEEEED1Ev @259
    _ZN7acommon18MakeVirEnumerationIN28aspeller_default_readonly_ws10ReadOnlyWS24SoundslikeWordsParmsNoSLENS_14VirEnumerationIN8aspeller13BasicWordInfoEEEE4nextEv @260
    _ZN7acommon18MakeVirEnumerationIN28aspeller_default_readonly_ws10ReadOnlyWS24SoundslikeWordsParmsNoSLENS_14VirEnumerationIN8aspeller13BasicWordInfoEEEE6assignEPKS7_ @261
    _ZN7acommon18MakeVirEnumerationIN28aspeller_default_readonly_ws10ReadOnlyWS24SoundslikeWordsParmsNoSLENS_14VirEnumerationIN8aspeller13BasicWordInfoEEEED0Ev @262
    _ZN7acommon18MakeVirEnumerationIN28aspeller_default_readonly_ws10ReadOnlyWS24SoundslikeWordsParmsNoSLENS_14VirEnumerationIN8aspeller13BasicWordInfoEEEED1Ev @263
    _ZN7acommon18MakeVirEnumerationIN28aspeller_default_readonly_ws10ReadOnlyWS27SoundslikeElementsParmsNoSLENS_14VirEnumerationIN8aspeller14SoundslikeWordEEEE4nextEv @264
    _ZN7acommon18MakeVirEnumerationIN28aspeller_default_readonly_ws10ReadOnlyWS27SoundslikeElementsParmsNoSLENS_14VirEnumerationIN8aspeller14SoundslikeWordEEEE6assignEPKS7_ @265
    _ZN7acommon18MakeVirEnumerationIN28aspeller_default_readonly_ws10ReadOnlyWS27SoundslikeElementsParmsNoSLENS_14VirEnumerationIN8aspeller14SoundslikeWordEEEED0Ev @266
    _ZN7acommon18MakeVirEnumerationIN28aspeller_default_readonly_ws10ReadOnlyWS27SoundslikeElementsParmsNoSLENS_14VirEnumerationIN8aspeller14SoundslikeWordEEEED1Ev @267
    _ZN7acommon18MakeVirEnumerationIN28aspeller_default_writable_wl10WritableWS13ElementsParmsENS_14VirEnumerationIN8aspeller13BasicWordInfoEEEE4nextEv @268
    _ZN7acommon18MakeVirEnumerationIN28aspeller_default_writable_wl10WritableWS13ElementsParmsENS_14VirEnumerationIN8aspeller13BasicWordInfoEEEE6assignEPKS7_ @269
    _ZN7acommon18MakeVirEnumerationIN28aspeller_default_writable_wl10WritableWS13ElementsParmsENS_14VirEnumerationIN8aspeller13BasicWordInfoEEEED0Ev @270
    _ZN7acommon18MakeVirEnumerationIN28aspeller_default_writable_wl10WritableWS13ElementsParmsENS_14VirEnumerationIN8aspeller13BasicWordInfoEEEED1Ev @271
    _ZN7acommon18MakeVirEnumerationIN28aspeller_default_writable_wl10WritableWS20SoundslikeWordsParmsENS_14VirEnumerationIN8aspeller13BasicWordInfoEEEE4nextEv @272
    _ZN7acommon18MakeVirEnumerationIN28aspeller_default_writable_wl10WritableWS20SoundslikeWordsParmsENS_14VirEnumerationIN8aspeller13BasicWordInfoEEEE6assignEPKS7_ @273
    _ZN7acommon18MakeVirEnumerationIN28aspeller_default_writable_wl10WritableWS20SoundslikeWordsParmsENS_14VirEnumerationIN8aspeller13BasicWordInfoEEEED0Ev @274
    _ZN7acommon18MakeVirEnumerationIN28aspeller_default_writable_wl10WritableWS20SoundslikeWordsParmsENS_14VirEnumerationIN8aspeller13BasicWordInfoEEEED1Ev @275
    _ZN7acommon18MakeVirEnumerationIN28aspeller_default_writable_wl10WritableWS23SoundslikeElementsParmsENS_14VirEnumerationIN8aspeller14SoundslikeWordEEEE4nextEv @276
    _ZN7acommon18MakeVirEnumerationIN28aspeller_default_writable_wl10WritableWS23SoundslikeElementsParmsENS_14VirEnumerationIN8aspeller14SoundslikeWordEEEE6assignEPKS7_ @277
    _ZN7acommon18MakeVirEnumerationIN28aspeller_default_writable_wl10WritableWS23SoundslikeElementsParmsENS_14VirEnumerationIN8aspeller14SoundslikeWordEEEED0Ev @278
    _ZN7acommon18MakeVirEnumerationIN28aspeller_default_writable_wl10WritableWS23SoundslikeElementsParmsENS_14VirEnumerationIN8aspeller14SoundslikeWordEEEED1Ev @279
    _ZN7acommon18MakeVirEnumerationIN30aspeller_default_writable_repl13WritableReplS21ReplsWSoundslikeParmsENS_14VirEnumerationIN8aspeller15ReplacementListEEEE4nextEv @280
    _ZN7acommon18MakeVirEnumerationIN30aspeller_default_writable_repl13WritableReplS21ReplsWSoundslikeParmsENS_14VirEnumerationIN8aspeller15ReplacementListEEEE6assignEPKS7_ @281
    _ZN7acommon18MakeVirEnumerationIN30aspeller_default_writable_repl13WritableReplS21ReplsWSoundslikeParmsENS_14VirEnumerationIN8aspeller15ReplacementListEEEED0Ev @282
    _ZN7acommon18MakeVirEnumerationIN30aspeller_default_writable_repl13WritableReplS21ReplsWSoundslikeParmsENS_14VirEnumerationIN8aspeller15ReplacementListEEEED1Ev @283
    _ZN7acommon18MakeVirEnumerationIN30aspeller_default_writable_repl13WritableReplS23SoundslikeElementsParmsENS_14VirEnumerationIN8aspeller14SoundslikeWordEEEE4nextEv @284
    _ZN7acommon18MakeVirEnumerationIN30aspeller_default_writable_repl13WritableReplS23SoundslikeElementsParmsENS_14VirEnumerationIN8aspeller14SoundslikeWordEEEE6assignEPKS7_ @285
    _ZN7acommon18MakeVirEnumerationIN30aspeller_default_writable_repl13WritableReplS23SoundslikeElementsParmsENS_14VirEnumerationIN8aspeller14SoundslikeWordEEEED0Ev @286
    _ZN7acommon18MakeVirEnumerationIN30aspeller_default_writable_repl13WritableReplS23SoundslikeElementsParmsENS_14VirEnumerationIN8aspeller14SoundslikeWordEEEED1Ev @287
    _ZN7acommon18MakeVirEnumerationIN8aspeller11SpellerImpl17DataSetCollection5ParmsENS_14VirEnumerationIPNS1_7DataSetEEEE4nextEv @288
    _ZN7acommon18MakeVirEnumerationIN8aspeller11SpellerImpl17DataSetCollection5ParmsENS_14VirEnumerationIPNS1_7DataSetEEEE6assignEPKS8_ @289
    _ZN7acommon18MakeVirEnumerationIN8aspeller11SpellerImpl17DataSetCollection5ParmsENS_14VirEnumerationIPNS1_7DataSetEEEED0Ev @290
    _ZN7acommon18MakeVirEnumerationIN8aspeller11SpellerImpl17DataSetCollection5ParmsENS_14VirEnumerationIPNS1_7DataSetEEEED1Ev @291
    _ZN7acommon18MakeVirEnumerationIN8aspeller7MultiWS13ElementsParmsENS_14VirEnumerationINS1_12LocalWordSetEEEE4nextEv @292
    _ZN7acommon18MakeVirEnumerationIN8aspeller7MultiWS13ElementsParmsENS_14VirEnumerationINS1_12LocalWordSetEEEE6assignEPKS6_ @293
    _ZN7acommon18MakeVirEnumerationIN8aspeller7MultiWS13ElementsParmsENS_14VirEnumerationINS1_12LocalWordSetEEEED0Ev @294
    _ZN7acommon18MakeVirEnumerationIN8aspeller7MultiWS13ElementsParmsENS_14VirEnumerationINS1_12LocalWordSetEEEED1Ev @295
    _ZN7acommon18MakeVirEnumerationIN8aspeller8StrParmsIN9__gnu_cxx17__normal_iteratorIPKNS_6StringESt6vectorIS5_SaIS5_EEEEEENS_14VirEnumerationIPKcEEE4nextEv @296
    _ZN7acommon18MakeVirEnumerationIN8aspeller8StrParmsIN9__gnu_cxx17__normal_iteratorIPKNS_6StringESt6vectorIS5_SaIS5_EEEEEENS_14VirEnumerationIPKcEEE6assignEPKSG_ @297
    _ZN7acommon18MakeVirEnumerationIN8aspeller8StrParmsIN9__gnu_cxx17__normal_iteratorIPKNS_6StringESt6vectorIS5_SaIS5_EEEEEENS_14VirEnumerationIPKcEEEC1ESB_RKSC_ @298
    _ZN7acommon18MakeVirEnumerationIN8aspeller8StrParmsIN9__gnu_cxx17__normal_iteratorIPKNS_6StringESt6vectorIS5_SaIS5_EEEEEENS_14VirEnumerationIPKcEEED0Ev @299
    _ZN7acommon18MakeVirEnumerationIN8aspeller8StrParmsIN9__gnu_cxx17__normal_iteratorIPKNS_6StringESt6vectorIS5_SaIS5_EEEEEENS_14VirEnumerationIPKcEEED1Ev @300
    _ZN7acommon18filter_modules_endE @301 DATA
    _ZN7acommon18get_dict_file_nameEPKNS_8DictInfoERNS_6StringES4_ @302
    _ZN7acommon18get_dict_info_listEPNS_6ConfigE @303
    _ZN7acommon18open_file_readlockERNS_7FStreamENS_10ParmStringE @304
    _ZN7acommon18sgml_options_beginE @305 DATA
    _ZN7acommon19DictInfoEnumeration4nextEv @306
    _ZN7acommon19DictInfoEnumeration6assignEPKS0_ @307
    _ZN7acommon19DictInfoEnumerationD0Ev @308
    _ZN7acommon19DictInfoEnumerationD1Ev @309
    _ZN7acommon19email_options_beginE @310 DATA
    _ZN7acommon19open_file_writelockERNS_7FStreamENS_10ParmStringE @311
    _ZN7acommon20PossibleElementsEmul4nextEv @312
    _ZN7acommon20PossibleElementsEmul6assignEPKNS_18KeyInfoEnumerationE @313
    _ZN7acommon20PossibleElementsEmulD0Ev @314
    _ZN7acommon20PossibleElementsEmulD1Ev @315
    _ZN7acommon20StringMapEnumeration4nextEv @316
    _ZN7acommon20StringMapEnumeration6assignEPKNS_21StringPairEnumerationE @317
    _ZN7acommon20StringMapEnumerationC1EPKPNS_13StringMapNodeEj @318
    _ZN7acommon20StringMapEnumerationC2EPKPNS_13StringMapNodeEj @319
    _ZN7acommon20StringMapEnumerationD0Ev @320
    _ZN7acommon20StringMapEnumerationD1Ev @321
    _ZN7acommon20config_impl_keys_endE @322 DATA
    _ZN7acommon20filter_modules_beginE @323 DATA
    _ZN7acommon20get_module_info_listEPNS_6ConfigE @324
    _ZN7acommon20new_document_checkerEPNS_7SpellerE @325
    _ZN7acommon21ModuleInfoEnumeration4nextEv @326
    _ZN7acommon21ModuleInfoEnumeration6assignEPKS0_ @327
    _ZN7acommon21ModuleInfoEnumerationD0Ev @328
    _ZN7acommon21ModuleInfoEnumerationD1Ev @329
    _ZN7acommon21NotifyListBlockChange3addENS_10ParmStringE @330
    _ZN7acommon21NotifyListBlockChange5clearEv @331
    _ZN7acommon21NotifyListBlockChange6removeENS_10ParmStringE @332
    _ZN7acommon21NotifyListBlockChangeC1EPKNS_7KeyInfoERNS_6VectorIPNS_8NotifierEEE @333
    _ZN7acommon21NotifyListBlockChangeC2EPKNS_7KeyInfoERNS_6VectorIPNS_8NotifierEEE @334
    _ZN7acommon21NotifyListBlockChangeD0Ev @335
    _ZN7acommon21NotifyListBlockChangeD1Ev @336
    _ZN7acommon21StringListEnumeration4nextEv @337
    _ZN7acommon21StringListEnumeration6assignEPKNS_17StringEnumerationE @338
    _ZN7acommon21StringListEnumerationD0Ev @339
    _ZN7acommon21StringListEnumerationD1Ev @340
    _ZN7acommon21StringPairEnumerationD0Ev @341
    _ZN7acommon21StringPairEnumerationD1Ev @342
    _ZN7acommon21get_modification_timeERNS_7FStreamE @343
    _ZN7acommon22config_impl_keys_beginE @344 DATA
    _ZN7acommon22find_individual_filterENS_10ParmStringE @345
    _ZN7acommon23set_mode_from_extensionEPNS_6ConfigENS_10ParmStringE @346
    _ZN7acommon24MakeAlwaysEndEnumerationIN8aspeller13BasicWordInfoEE4nextEv @347
    _ZN7acommon24MakeAlwaysEndEnumerationIN8aspeller13BasicWordInfoEE6assignEPKNS_14VirEnumerationIS2_EE @348
    _ZN7acommon24MakeAlwaysEndEnumerationIN8aspeller13BasicWordInfoEED0Ev @349
    _ZN7acommon24MakeAlwaysEndEnumerationIN8aspeller13BasicWordInfoEED1Ev @350
    _ZN7acommon24MakeAlwaysEndEnumerationIN8aspeller15ReplacementListEE4nextEv @351
    _ZN7acommon24MakeAlwaysEndEnumerationIN8aspeller15ReplacementListEE6assignEPKNS_14VirEnumerationIS2_EE @352
    _ZN7acommon24MakeAlwaysEndEnumerationIN8aspeller15ReplacementListEED0Ev @353
    _ZN7acommon24MakeAlwaysEndEnumerationIN8aspeller15ReplacementListEED1Ev @354
    _ZN7acommon4Conv4initEPKNS_6DecodeEPKNS_6EncodeERNS_6ConfigE @355
    _ZN7acommon5ErrorC1ERKS0_ @356
    _ZN7acommon5ErrorC2ERKS0_ @357
    _ZN7acommon5ErrorD1Ev @358
    _ZN7acommon5ErrorD2Ev @359
    _ZN7acommon5ErroraSERKS0_ @360
    _ZN7acommon6Better12better_matchENS_8IsBetterE @361
    _ZN7acommon6BetterD0Ev @362
    _ZN7acommon6BetterD1Ev @363
    _ZN7acommon6BetterD2Ev @364
    _ZN7acommon6Config11set_modulesEPKNS_12ConfigModuleES3_ @365
    _ZN7acommon6Config12add_notifierEPNS_8NotifierE @366
    _ZN7acommon6Config12read_in_fileENS_10ParmStringE @367
    _ZN7acommon6Config13del_notifiersEv @368
    _ZN7acommon6Config14copy_notifiersERKS0_ @369
    _ZN7acommon6Config14read_in_stringENS_10ParmStringE @370
    _ZN7acommon6Config15remove_notifierEPKNS_8NotifierE @371
    _ZN7acommon6Config15write_to_streamERNS_7OStreamEb @372
    _ZN7acommon6Config16read_in_settingsEPKS0_ @373
    _ZN7acommon6Config16replace_notifierEPKNS_8NotifierEPS1_ @374
    _ZN7acommon6Config17possible_elementsEb @375
    _ZN7acommon6Config5mergeERKS0_ @376
    _ZN7acommon6Config6assignEPKS0_ @377
    _ZN7acommon6Config6removeENS_10ParmStringE @378
    _ZN7acommon6Config7read_inERNS_7IStreamE @379
    _ZN7acommon6Config7replaceENS_10ParmStringES1_ @380
    _ZN7acommon6Config8elementsEv @381
    _ZN7acommon6Config9base_nameENS_10ParmStringE @382
    _ZN7acommon6Config9set_extraEPKNS_7KeyInfoES3_ @383
    _ZN7acommon6ConfigC1ENS_10ParmStringEPKNS_7KeyInfoES4_ @384
    _ZN7acommon6ConfigC1ERKS0_ @385
    _ZN7acommon6ConfigC2ENS_10ParmStringEPKNS_7KeyInfoES4_ @386
    _ZN7acommon6ConfigC2ERKS0_ @387
    _ZN7acommon6ConfigD0Ev @388
    _ZN7acommon6ConfigD1Ev @389
    _ZN7acommon6ConfigD2Ev @390
    _ZN7acommon6ConfigaSERKS0_ @391
    _ZN7acommon6Decode4initENS_10ParmStringERNS_6ConfigE @392
    _ZN7acommon6Encode4initENS_10ParmStringERNS_6ConfigE @393
    _ZN7acommon6Filter10add_filterEPNS_16IndividualFilterE @394
    _ZN7acommon6Filter5clearEv @395
    _ZN7acommon6Filter5resetEv @396
    _ZN7acommon6Filter7processERPNS_10FilterCharES3_ @397
    _ZN7acommon6FilterC1Ev @398
    _ZN7acommon6FilterC2Ev @399
    _ZN7acommon6FilterD0Ev @400
    _ZN7acommon6FilterD1Ev @401
    _ZN7acommon6FilterD2Ev @402
    _ZN7acommon6String5writeENS_10ParmStringE @403
    _ZN7acommon6String5writeEPKcj @404
    _ZN7acommon6String5writeEc @405
    _ZN7acommon6StringD0Ev @406
    _ZN7acommon6StringD1Ev @407
    _ZN7acommon6StringaSERKNS_8PosibErrIS0_EE @408
    _ZN7acommon7Convert15generic_convertEPKciRNS_10CharVectorE @409
    _ZN7acommon7Convert4initERNS_6ConfigENS_10ParmStringES3_ @410
    _ZN7acommon7ConvertC1Ev @411
    _ZN7acommon7CopyPtrIN8aspeller8LanguageEE5Parms3delEPS2_ @412
    _ZN7acommon7CopyPtrIN8aspeller8LanguageEE5resetEPS2_ @413
    _ZN7acommon7CopyPtrIN8aspeller8LanguageEE6assignEPKS2_ @414
    _ZN7acommon7CopyPtrIN8aspeller8LanguageEE7releaseEv @415
    _ZN7acommon7CopyPtrIN8aspeller8LanguageEEC1EPS2_ @416
    _ZN7acommon7CopyPtrIN8aspeller8LanguageEEC1ERKS3_ @417
    _ZN7acommon7CopyPtrIN8aspeller8LanguageEEC2EPS2_ @418
    _ZN7acommon7CopyPtrIN8aspeller8LanguageEEC2ERKS3_ @419
    _ZN7acommon7CopyPtrIN8aspeller8LanguageEEaSERKS3_ @420
    _ZN7acommon7DictExtC1EPNS_10ModuleInfoEPKc @421
    _ZN7acommon7DictExtC2EPNS_10ModuleInfoEPKc @422
    _ZN7acommon7ExtsMap3addENS_10ParmStringE @423
    _ZN7acommon7ExtsMapD0Ev @424
    _ZN7acommon7ExtsMapD1Ev @425
    _ZN7acommon7FStream4openENS_10ParmStringEPKc @426
    _ZN7acommon7FStream4readEPvj @427
    _ZN7acommon7FStream5closeEv @428
    _ZN7acommon7FStream5writeENS_10ParmStringE @429
    _ZN7acommon7FStream5writeEPKcj @430
    _ZN7acommon7FStream5writeEc @431
    _ZN7acommon7FStream6skipwsEv @432
    _ZN7acommon7FStream7file_noEv @433
    _ZN7acommon7FStream7getlineERNS_6StringEc @434
    _ZN7acommon7FStream7restartEv @435
    _ZN7acommon7FStream8c_streamEv @436
    _ZN7acommon7FStreamD0Ev @437
    _ZN7acommon7FStreamD1Ev @438
    _ZN7acommon7FStreamlsENS_10ParmStringE @439
    _ZN7acommon7FStreamlsEd @440
    _ZN7acommon7FStreamlsEi @441
    _ZN7acommon7FStreamlsEj @442
    _ZN7acommon7FStreamrsERNS_6StringE @443
    _ZN7acommon7FStreamrsERi @444
    _ZN7acommon7FStreamrsERj @445
    _ZN7acommon7IStreamD0Ev @446
    _ZN7acommon7IStreamD1Ev @447
    _ZN7acommon7OStreamD0Ev @448
    _ZN7acommon7OStreamD1Ev @449
    _ZN7acommon7OStreamD2Ev @450
    _ZN7acommon7SpellerC1EPv @451
    _ZN7acommon7SpellerC2EPv @452
    _ZN7acommon7SpellerD0Ev @453
    _ZN7acommon7SpellerD1Ev @454
    _ZN7acommon7SpellerD2Ev @455
    _ZN7acommon7itemizeENS_10ParmStringERNS_16MutableContainerE @456
    _ZN7acommon8ClonePtrIN8aspeller10SoundslikeEE5Parms3delEPS2_ @457
    _ZN7acommon8ClonePtrIN8aspeller10SoundslikeEE5resetEPS2_ @458
    _ZN7acommon8ClonePtrIN8aspeller10SoundslikeEE6assignEPKS2_ @459
    _ZN7acommon8ClonePtrIN8aspeller10SoundslikeEE7releaseEv @460
    _ZN7acommon8ClonePtrIN8aspeller10SoundslikeEEC1EPS2_ @461
    _ZN7acommon8ClonePtrIN8aspeller10SoundslikeEEC1ERKS3_ @462
    _ZN7acommon8ClonePtrIN8aspeller10SoundslikeEEC2EPS2_ @463
    _ZN7acommon8ClonePtrIN8aspeller10SoundslikeEEC2ERKS3_ @464
    _ZN7acommon8ClonePtrIN8aspeller10SoundslikeEEaSERKS3_ @465
    _ZN7acommon8ListDump3addENS_10ParmStringE @466
    _ZN7acommon8ListDump5clearEv @467
    _ZN7acommon8ListDump6removeENS_10ParmStringE @468
    _ZN7acommon8ListDumpD0Ev @469
    _ZN7acommon8ListDumpD1Ev @470
    _ZN7acommon8Notifier10item_addedEPKNS_7KeyInfoENS_10ParmStringE @471
    _ZN7acommon8Notifier11all_removedEPKNS_7KeyInfoENS_10ParmStringE @472
    _ZN7acommon8Notifier12item_removedEPKNS_7KeyInfoENS_10ParmStringE @473
    _ZN7acommon8Notifier12item_updatedEPKNS_7KeyInfoENS_10ParmStringE @474
    _ZN7acommon8Notifier12item_updatedEPKNS_7KeyInfoEb @475
    _ZN7acommon8Notifier12item_updatedEPKNS_7KeyInfoEi @476
    _ZN7acommon8NotifierD0Ev @477
    _ZN7acommon8NotifierD1Ev @478
    _ZN7acommon8WordListD0Ev @479
    _ZN7acommon8WordListD1Ev @480
    _ZN7acommon8need_dirENS_10ParmStringE @481
    _ZN7acommon8strtod_cEPKcPPc @482
    _ZN7acommon8unescapeERNS_6StringE @483
    _ZN7acommon9HashTableINS_12HashMapParmsIN8aspeller12SimpleStringEN30aspeller_default_writable_repl13WritableReplS12RealReplListENS_4hashIS3_EESt8equal_toIS3_ELb0EEEE12create_tableEj @484
    _ZN7acommon9HashTableINS_12HashMapParmsIN8aspeller12SimpleStringEN30aspeller_default_writable_repl13WritableReplS12RealReplListENS_4hashIS3_EESt8equal_toIS3_ELb0EEEE12next_largestEj @485
    _ZN7acommon9HashTableINS_12HashMapParmsIN8aspeller12SimpleStringEN30aspeller_default_writable_repl13WritableReplS12RealReplListENS_4hashIS3_EESt8equal_toIS3_ELb0EEEE3delEv @486
    _ZN7acommon9HashTableINS_12HashMapParmsIN8aspeller12SimpleStringEN30aspeller_default_writable_repl13WritableReplS12RealReplListENS_4hashIS3_EESt8equal_toIS3_ELb0EEEE6find_iERKS3_Rb @487
    _ZN7acommon9HashTableINS_12HashMapParmsIN8aspeller12SimpleStringEN30aspeller_default_writable_repl13WritableReplS12RealReplListENS_4hashIS3_EESt8equal_toIS3_ELb0EEEE6insertERKSt4pairIKS3_S6_E @488
    _ZN7acommon9HashTableINS_12HashMapParmsIN8aspeller12SimpleStringEN30aspeller_default_writable_repl13WritableReplS12RealReplListENS_4hashIS3_EESt8equal_toIS3_ELb0EEEE8resize_iEj @489
    _ZN7acommon9HashTableINS_12HashMapParmsIN8aspeller12SimpleStringEN30aspeller_default_writable_repl13WritableReplS12RealReplListENS_4hashIS3_EESt8equal_toIS3_ELb0EEEEC2EiRKSB_ @490
    _ZN7acommon9HashTableINS_12HashMapParmsIN8aspeller12SimpleStringESt6vectorIPKcSaIS6_EENS_4hashIS3_EESt8equal_toIS3_ELb0EEEE3delEv @491
    _ZN7acommon9HashTableINS_12HashMapParmsIN8aspeller12SimpleStringESt6vectorIPKcSaIS6_EENS_4hashIS3_EESt8equal_toIS3_ELb0EEEE6find_iERKS3_Rb @492
    _ZN7acommon9HashTableINS_12HashMapParmsIN8aspeller12SimpleStringESt6vectorIPKcSaIS6_EENS_4hashIS3_EESt8equal_toIS3_ELb0EEEE6insertERKSt4pairIKS3_S8_E @493
    _ZN7acommon9HashTableINS_12HashMapParmsIN8aspeller12SimpleStringESt6vectorIPKcSaIS6_EENS_4hashIS3_EESt8equal_toIS3_ELb0EEEE8resize_iEj @494
    _ZN7acommon9HashTableINS_12HashMapParmsIN8aspeller12SimpleStringESt6vectorIPKcSaIS6_EENS_4hashIS3_EESt8equal_toIS3_ELb0EEEEC2EiRKSD_ @495
    _ZN7acommon9HashTableINS_12HashSetParmsIN8aspeller12SimpleStringEN28aspeller_default_writable_wl10WritableWS4HashENS5_5EqualELb1EEEE12create_tableEj @496
    _ZN7acommon9HashTableINS_12HashSetParmsIN8aspeller12SimpleStringEN28aspeller_default_writable_wl10WritableWS4HashENS5_5EqualELb1EEEE12next_largestEj @497
    _ZN7acommon9HashTableINS_12HashSetParmsIN8aspeller12SimpleStringEN28aspeller_default_writable_wl10WritableWS4HashENS5_5EqualELb1EEEE13equal_range_iERKS3_Ri @498
    _ZN7acommon9HashTableINS_12HashSetParmsIN8aspeller12SimpleStringEN28aspeller_default_writable_wl10WritableWS4HashENS5_5EqualELb1EEEE3delEv @499
    _ZN7acommon9HashTableINS_12HashSetParmsIN8aspeller12SimpleStringEN28aspeller_default_writable_wl10WritableWS4HashENS5_5EqualELb1EEEE6find_iERKS3_Rb @500
    _ZN7acommon9HashTableINS_12HashSetParmsIN8aspeller12SimpleStringEN28aspeller_default_writable_wl10WritableWS4HashENS5_5EqualELb1EEEE6insertERKS3_ @501
    _ZN7acommon9HashTableINS_12HashSetParmsIN8aspeller12SimpleStringEN28aspeller_default_writable_wl10WritableWS4HashENS5_5EqualELb1EEEE8resize_iEj @502
    _ZN7acommon9HashTableINS_12HashSetParmsIN8aspeller12SimpleStringEN28aspeller_default_writable_wl10WritableWS4HashENS5_5EqualELb1EEEED2Ev @503
    _ZN7acommon9HashTableINS_12HashSetParmsINS_6StringENS_10HashStringIS2_EESt8equal_toIS2_ELb0EEEE12create_tableEj @504
    _ZN7acommon9HashTableINS_12HashSetParmsINS_6StringENS_10HashStringIS2_EESt8equal_toIS2_ELb0EEEE12next_largestEj @505
    _ZN7acommon9HashTableINS_12HashSetParmsINS_6StringENS_10HashStringIS2_EESt8equal_toIS2_ELb0EEEE3delEv @506
    _ZN7acommon9HashTableINS_12HashSetParmsINS_6StringENS_10HashStringIS2_EESt8equal_toIS2_ELb0EEEE6find_iERKS2_Rb @507
    _ZN7acommon9HashTableINS_12HashSetParmsINS_6StringENS_10HashStringIS2_EESt8equal_toIS2_ELb0EEEE6insertERKS2_ @508
    _ZN7acommon9HashTableINS_12HashSetParmsINS_6StringENS_10HashStringIS2_EESt8equal_toIS2_ELb0EEEE8resize_iEj @509
    _ZN7acommon9StringMap11clear_tableEPKj @510
    _ZN7acommon9StringMap3addENS_10ParmStringE @511
    _ZN7acommon9StringMap4copyERKS0_ @512
    _ZN7acommon9StringMap4findENS_10ParmStringE @513
    _ZN7acommon9StringMap5clearEv @514
    _ZN7acommon9StringMap6insertENS_10ParmStringES1_b @515
    _ZN7acommon9StringMap6removeENS_10ParmStringE @516
    _ZN7acommon9StringMap6resizeEPKj @517
    _ZN7acommon9StringMap7destroyEv @518
    _ZN7acommon9StringMapC1ERKS0_ @519
    _ZN7acommon9StringMapC1Ev @520
    _ZN7acommon9StringMapC2ERKS0_ @521
    _ZN7acommon9StringMapC2Ev @522
    _ZN7acommon9StringMapD0Ev @523
    _ZN7acommon9StringMapD1Ev @524
    _ZN7acommon9StringMapD2Ev @525
    _ZN7acommon9StringMapaSERKS0_ @526
    _ZN7acommon9TexFilter10end_optionEcc @527
    _ZN7acommon9TexFilter12process_charEj @528
    _ZN7acommon9TexFilter5resetEv @529
    _ZN7acommon9TexFilter5setupEPNS_6ConfigE @530
    _ZN7acommon9TexFilter7processERPNS_10FilterCharES3_ @531
    _ZN7acommon9TexFilter8Commands3addENS_10ParmStringE @532
    _ZN7acommon9TexFilter8Commands6removeENS_10ParmStringE @533
    _ZN7acommon9TexFilter8CommandsD0Ev @534
    _ZN7acommon9TexFilter8CommandsD1Ev @535
    _ZN7acommon9TexFilterD0Ev @536
    _ZN7acommon9TexFilterD1Ev @537
    _ZN7acommon9Tokenizer5resetEPNS_10FilterCharES2_ @538
    _ZN7acommon9TokenizerC1Ev @539
    _ZN7acommon9TokenizerC2Ev @540
    _ZN7acommon9TokenizerD0Ev @541
    _ZN7acommon9TokenizerD1Ev @542
    _ZN7acommon9TokenizerD2Ev @543
    _ZN7acommon9UrlFilter5resetEv @544
    _ZN7acommon9UrlFilter5setupEPNS_6ConfigE @545
    _ZN7acommon9UrlFilter7processERPNS_10FilterCharES3_ @546
    _ZN7acommon9UrlFilterD0Ev @547
    _ZN7acommon9UrlFilterD1Ev @548
    _ZN7acommoneqERKNS_10StringListES2_ @549
    _ZN7acommoneqERKNS_7ConvertES2_ @550
    _ZN7acommonltERKNS_12DictInfoNodeES2_ @551
    _ZN8aspeller10SoundslikeD0Ev @552
    _ZN8aspeller10SoundslikeD1Ev @553
    _ZN8aspeller11PhonetParms9rules_endE @554 DATA
    _ZN8aspeller11PhonetParmsD0Ev @555
    _ZN8aspeller11PhonetParmsD1Ev @556
    _ZN8aspeller11PhonetParmsD2Ev @557
    _ZN8aspeller11SpellerImpl12check_simpleEN7acommon10ParmStringE @558
    _ZN8aspeller11SpellerImpl12use_to_checkERKNS_7DataSet2IdEb @559
    _ZN8aspeller11SpellerImpl13clear_sessionEv @560
    _ZN8aspeller11SpellerImpl14ConfigNotifier11ignore_caseEPS0_b @561
    _ZN8aspeller11SpellerImpl14ConfigNotifier11ignore_replEPS0_b @562
    _ZN8aspeller11SpellerImpl14ConfigNotifier12item_updatedEPKN7acommon7KeyInfoENS2_10ParmStringE @563
    _ZN8aspeller11SpellerImpl14ConfigNotifier12item_updatedEPKN7acommon7KeyInfoEb @564
    _ZN8aspeller11SpellerImpl14ConfigNotifier12item_updatedEPKN7acommon7KeyInfoEi @565
    _ZN8aspeller11SpellerImpl14ConfigNotifier12run_togetherEPS0_b @566
    _ZN8aspeller11SpellerImpl14ConfigNotifier14ignore_accentsEPS0_b @567
    _ZN8aspeller11SpellerImpl14ConfigNotifier16run_together_minEPS0_i @568
    _ZN8aspeller11SpellerImpl14ConfigNotifier18run_together_limitEPS0_i @569
    _ZN8aspeller11SpellerImpl14ConfigNotifier6ignoreEPS0_i @570
    _ZN8aspeller11SpellerImpl14ConfigNotifier8sug_modeEPS0_PKc @571
    _ZN8aspeller11SpellerImpl14ConfigNotifier9save_replEPS0_b @572
    _ZN8aspeller11SpellerImpl14ConfigNotifierD0Ev @573
    _ZN8aspeller11SpellerImpl14ConfigNotifierD1Ev @574
    _ZN8aspeller11SpellerImpl14add_to_sessionEN7acommon13MutableStringE @575
    _ZN8aspeller11SpellerImpl14use_to_suggestERKNS_7DataSet2IdEb @576
    _ZN8aspeller11SpellerImpl15add_to_personalEN7acommon13MutableStringE @577
    _ZN8aspeller11SpellerImpl15save_on_saveallERKNS_7DataSet2IdEb @578
    _ZN8aspeller11SpellerImpl15setup_tokenizerEPN7acommon9TokenizerE @579
    _ZN8aspeller11SpellerImpl17DataSetCollection4Item21set_sensible_defaultsEv @580
    _ZN8aspeller11SpellerImpl17store_replacementEN7acommon13MutableStringES2_ @581
    _ZN8aspeller11SpellerImpl17store_replacementERKN7acommon6StringES4_b @582
    _ZN8aspeller11SpellerImpl19save_all_word_listsEv @583
    _ZN8aspeller11SpellerImpl3ownERKNS_7DataSet2IdEb @584
    _ZN8aspeller11SpellerImpl5checkEN7acommon13MutableStringE @585
    _ZN8aspeller11SpellerImpl5checkEPcS1_jNS_12CompoundInfo8PositionEPNS_14SingleWordInfoE @586
    _ZN8aspeller11SpellerImpl5setupEPN7acommon6ConfigE @587
    _ZN8aspeller11SpellerImpl5stealEPNS_7DataSetEPKNS_16LocalWordSetInfoE @588
    _ZN8aspeller11SpellerImpl6attachEPNS_7DataSetEPKNS_16LocalWordSetInfoE @589
    _ZN8aspeller11SpellerImpl6detachERKNS_7DataSet2IdE @590
    _ZN8aspeller11SpellerImpl6locateERKNS_7DataSet2IdE @591
    _ZN8aspeller11SpellerImpl7destroyERKNS_7DataSet2IdE @592
    _ZN8aspeller11SpellerImpl7suggestEN7acommon13MutableStringE @593
    _ZN8aspeller11SpellerImpl8to_lowerEPc @594
    _ZN8aspeller11SpellerImpl9change_idERKNS_7DataSet2IdENS0_9SpecialIdE @595
    _ZN8aspeller11SpellerImplC1Ev @596
    _ZN8aspeller11SpellerImplC2Ev @597
    _ZN8aspeller11SpellerImplD0Ev @598
    _ZN8aspeller11SpellerImplD1Ev @599
    _ZN8aspeller11SpellerImplD2Ev @600
    _ZN8aspeller11VHTIteratorINS_15VectorHashTableIN28aspeller_default_readonly_ws10ReadOnlyWS15WordLookupParmsEE10ConstParmsEEppEv @601
    _ZN8aspeller11VHTIteratorINS_15VectorHashTableIN28aspeller_default_readonly_ws15WordLookupParmsEE13NonConstParmsEEppEv @602
    _ZN8aspeller11VHTIteratorINS_15VectorHashTableIN28aspeller_default_readonly_ws21SoundslikeLookupParmsEE13NonConstParmsEEppEv @603
    _ZN8aspeller11to_strippedERKNS_8LanguageEN7acommon10ParmStringE @604
    _ZN8aspeller12BasicWordSetD0Ev @605
    _ZN8aspeller12BasicWordSetD1Ev @606
    _ZN8aspeller12BasicWordSetD2Ev @607
    _ZN8aspeller12CompoundInfo10compatibleENS0_8PositionE @608
    _ZN8aspeller12CompoundInfo4readEPKcRKNS_8LanguageE @609
    _ZN8aspeller12NoSoundslike5setupEv @610
    _ZN8aspeller12NoSoundslike6assignEPKNS_10SoundslikeE @611
    _ZN8aspeller12NoSoundslikeD0Ev @612
    _ZN8aspeller12NoSoundslikeD1Ev @613
    _ZN8aspeller12SimpleStringC1ERKS0_ @614
    _ZN8aspeller12SimpleStringD1Ev @615
    _ZN8aspeller12SuggestParms20fill_distance_lookupEPKN7acommon6ConfigERKNS_8LanguageE @616
    _ZN8aspeller12SuggestParms22set_original_word_sizeEi @617
    _ZN8aspeller12SuggestParms3setEN7acommon10ParmStringE @618
    _ZN8aspeller12SuggestParmsC1ERKS0_ @619
    _ZN8aspeller12SuggestParmsD0Ev @620
    _ZN8aspeller12SuggestParmsD1Ev @621
    _ZN8aspeller12WritableBaseINS_15WritableWordSetEE11synchronizeEv @622
    _ZN8aspeller12WritableBaseINS_15WritableWordSetEE13save_noupdateEv @623
    _ZN8aspeller12WritableBaseINS_15WritableWordSetEE13set_file_nameEN7acommon10ParmStringE @624
    _ZN8aspeller12WritableBaseINS_15WritableWordSetEE16update_file_infoERN7acommon7FStreamE @625
    _ZN8aspeller12WritableBaseINS_15WritableWordSetEE4loadEN7acommon10ParmStringEPNS3_6ConfigEPNS_11SpellerImplEPKNS_16LocalWordSetInfoE @626
    _ZN8aspeller12WritableBaseINS_15WritableWordSetEE5mergeEN7acommon10ParmStringE @627
    _ZN8aspeller12WritableBaseINS_15WritableWordSetEE7save_asEN7acommon10ParmStringE @628
    _ZN8aspeller12WritableBaseINS_15WritableWordSetEE9file_nameEv @629
    _ZN8aspeller12WritableBaseINS_15WritableWordSetEED0Ev @630
    _ZN8aspeller12WritableBaseINS_15WritableWordSetEED1Ev @631
    _ZN8aspeller12WritableBaseINS_15WritableWordSetEED2Ev @632
    _ZN8aspeller12WritableBaseINS_22WritableReplacementSetEE11synchronizeEv @633
    _ZN8aspeller12WritableBaseINS_22WritableReplacementSetEE13save_noupdateEv @634
    _ZN8aspeller12WritableBaseINS_22WritableReplacementSetEE13set_file_nameEN7acommon10ParmStringE @635
    _ZN8aspeller12WritableBaseINS_22WritableReplacementSetEE16update_file_infoERN7acommon7FStreamE @636
    _ZN8aspeller12WritableBaseINS_22WritableReplacementSetEE4loadEN7acommon10ParmStringEPNS3_6ConfigEPNS_11SpellerImplEPKNS_16LocalWordSetInfoE @637
    _ZN8aspeller12WritableBaseINS_22WritableReplacementSetEE5mergeEN7acommon10ParmStringE @638
    _ZN8aspeller12WritableBaseINS_22WritableReplacementSetEE7save_asEN7acommon10ParmStringE @639
    _ZN8aspeller12WritableBaseINS_22WritableReplacementSetEE9file_nameEv @640
    _ZN8aspeller12WritableBaseINS_22WritableReplacementSetEED0Ev @641
    _ZN8aspeller12WritableBaseINS_22WritableReplacementSetEED1Ev @642
    _ZN8aspeller12WritableBaseINS_22WritableReplacementSetEED2Ev @643
    _ZN8aspeller12add_data_setEN7acommon10ParmStringERNS0_6ConfigEPNS_11SpellerImplEPKNS_16LocalWordSetInfoES1_j @644
    _ZN8aspeller12case_patternERKNS_8LanguageEN7acommon10ParmStringE @645
    _ZN8aspeller12new_positionENS_12CompoundInfo8PositionES1_ @646
    _ZN8aspeller13edit_distanceEPKcS1_RKNS_19EditDistanceWeightsE @647
    _ZN8aspeller13edit_distanceEPKcS1_iiRKNS_19EditDistanceWeightsE @648
    _ZN8aspeller13fill_data_dirEPKN7acommon6ConfigERNS0_6StringES5_ @649
    _ZN8aspeller14SuggestionListD2Ev @650
    _ZN8aspeller14check_if_validERKNS_8LanguageEN7acommon10ParmStringE @651
    _ZN8aspeller14new_soundslikeEN7acommon10ParmStringEPKNS_8LanguageE @652
    _ZN8aspeller15LoadableDataSet13set_file_nameEN7acommon10ParmStringE @653
    _ZN8aspeller15LoadableDataSet16update_file_infoERN7acommon7FStreamE @654
    _ZN8aspeller15LoadableDataSetD0Ev @655
    _ZN8aspeller15LoadableDataSetD1Ev @656
    _ZN8aspeller15PhonetParmsImpl12fix_pointersERKS0_ @657
    _ZN8aspeller15PhonetParmsImpl6assignEPKNS_11PhonetParmsE @658
    _ZN8aspeller15PhonetParmsImplD0Ev @659
    _ZN8aspeller15PhonetParmsImplD1Ev @660
    _ZN8aspeller15VectorHashTableIN28aspeller_default_readonly_ws10ReadOnlyWS15WordLookupParmsEEC1EjRKS3_ @661
    _ZN8aspeller15VectorHashTableIN28aspeller_default_readonly_ws10ReadOnlyWS21SoundslikeLookupParmsEE12FindIteratorC2EPKS4_RKPKc @662
    _ZN8aspeller15VectorHashTableIN28aspeller_default_readonly_ws10ReadOnlyWS21SoundslikeLookupParmsEEC1EjRKS3_ @663
    _ZN8aspeller15VectorHashTableIN28aspeller_default_readonly_ws15WordLookupParmsEE18nonexistent_vectorEv @664
    _ZN8aspeller15VectorHashTableIN28aspeller_default_readonly_ws15WordLookupParmsEE6insertERKPKc @665
    _ZN8aspeller15VectorHashTableIN28aspeller_default_readonly_ws15WordLookupParmsEE6resizeEj @666
    _ZN8aspeller15VectorHashTableIN28aspeller_default_readonly_ws21SoundslikeLookupParmsEE12FindIteratorC2EPKS3_RKPKc @667
    _ZN8aspeller15VectorHashTableIN28aspeller_default_readonly_ws21SoundslikeLookupParmsEE18nonexistent_vectorEv @668
    _ZN8aspeller15VectorHashTableIN28aspeller_default_readonly_ws21SoundslikeLookupParmsEE6insertERKSt4pairIPKcNS2_4ListEE @669
    _ZN8aspeller15VectorHashTableIN28aspeller_default_readonly_ws21SoundslikeLookupParmsEE6resizeEj @670
    _ZN8aspeller15WritableWordSetD0Ev @671
    _ZN8aspeller15WritableWordSetD1Ev @672
    _ZN8aspeller15WritableWordSetD2Ev @673
    _ZN8aspeller16LocalWordSetInfo12set_languageEPKNS_8LanguageE @674
    _ZN8aspeller16LocalWordSetInfo3setEPKNS_8LanguageEPKN7acommon6ConfigEb @675
    _ZN8aspeller16PhonetSoundslike5setupEv @676
    _ZN8aspeller16PhonetSoundslike6assignEPKNS_10SoundslikeE @677
    _ZN8aspeller16PhonetSoundslikeD0Ev @678
    _ZN8aspeller16PhonetSoundslikeD1Ev @679
    _ZN8aspeller16WritableBaseCode21update_file_date_infoERN7acommon7FStreamE @680
    _ZN8aspeller16WritableBaseCode4loadEN7acommon10ParmStringEPNS1_6ConfigE @681
    _ZN8aspeller16WritableBaseCode4saveEb @682
    _ZN8aspeller16WritableBaseCode5mergeEN7acommon10ParmStringE @683
    _ZN8aspeller16WritableBaseCode5save2ERN7acommon7FStreamENS1_10ParmStringE @684
    _ZN8aspeller16WritableBaseCode6updateERN7acommon7FStreamENS1_10ParmStringE @685
    _ZN8aspeller16WritableBaseCode7save_asEN7acommon10ParmStringE @686
    _ZN8aspeller16WritableBaseCodeC2EPKcS2_ @687
    _ZN8aspeller16WritableBaseCodeD0Ev @688
    _ZN8aspeller16WritableBaseCodeD1Ev @689
    _ZN8aspeller16init_phonet_hashERNS_11PhonetParmsE @690
    _ZN8aspeller17GenericSoundslike5setupEv @691
    _ZN8aspeller17GenericSoundslike6assignEPKNS_10SoundslikeE @692
    _ZN8aspeller17GenericSoundslikeD0Ev @693
    _ZN8aspeller17GenericSoundslikeD1Ev @694
    _ZN8aspeller17load_phonet_rulesERKN7acommon6StringE @695
    _ZN8aspeller18typo_edit_distanceEPKhS1_RKNS_23TypoEditDistanceWeightsE @696
    _ZN8aspeller19limit_edit_distanceEPKcS1_iRKNS_19EditDistanceWeightsE @697
    _ZN8aspeller19new_default_suggestEPNS_11SpellerImplE @698
    _ZN8aspeller19new_default_suggestEPNS_11SpellerImplERKNS_12SuggestParmsE @699
    _ZN8aspeller20init_phonet_charinfoERNS_11PhonetParmsE @700
    _ZN8aspeller20limit2_edit_distanceEPKcS1_RKNS_19EditDistanceWeightsE @701
    _ZN8aspeller22WritableReplacementSetD0Ev @702
    _ZN8aspeller22WritableReplacementSetD1Ev @703
    _ZN8aspeller22WritableReplacementSetD2Ev @704
    _ZN8aspeller23BasicWordSetEnumeration4nextEv @705
    _ZN8aspeller23BasicWordSetEnumeration6assignEPKN7acommon17StringEnumerationE @706
    _ZN8aspeller23BasicWordSetEnumerationD0Ev @707
    _ZN8aspeller23BasicWordSetEnumerationD1Ev @708
    _ZN8aspeller23TypoEditDistanceWeightsC1Eiiiiii @709
    _ZN8aspeller24normalize_mid_charactersERKNS_8LanguageERN7acommon6StringE @710
    _ZN8aspeller26new_default_multi_word_setEv @711
    _ZN8aspeller29new_default_readonly_word_setEv @712
    _ZN8aspeller29new_default_writable_word_setEv @713
    _ZN8aspeller32create_default_readonly_word_setEPN7acommon17StringEnumerationERNS0_6ConfigE @714
    _ZN8aspeller36new_default_writable_replacement_setEv @715
    _ZN8aspeller5splitERKN7acommon6StringE @716
    _ZN8aspeller6Primes6resizeEj @717
    _ZN8aspeller6phonetEPKcPcRKNS_11PhonetParmsE @718
    _ZN8aspeller7DataSet10check_langEN7acommon10ParmStringE @719
    _ZN8aspeller7DataSet13set_lang_hookEPN7acommon6ConfigE @720
    _ZN8aspeller7DataSet14set_check_langEN7acommon10ParmStringEPNS1_6ConfigE @721
    _ZN8aspeller7DataSet2IdC1EPS0_RKNS0_8FileNameE @722
    _ZN8aspeller7DataSet2IdC2EPS0_RKNS0_8FileNameE @723
    _ZN8aspeller7DataSet6attachERKNS_8LanguageE @724
    _ZN8aspeller7DataSet6detachEv @725
    _ZN8aspeller7DataSet8FileName3setEN7acommon10ParmStringE @726
    _ZN8aspeller7DataSet8FileName4copyERKS1_ @727
    _ZN8aspeller7DataSet8FileName5clearEv @728
    _ZN8aspeller7DataSetC1Ev @729
    _ZN8aspeller7DataSetC2Ev @730
    _ZN8aspeller7DataSetD0Ev @731
    _ZN8aspeller7DataSetD1Ev @732
    _ZN8aspeller7DataSetD2Ev @733
    _ZN8aspeller7MultiWS4loadEN7acommon10ParmStringEPNS1_6ConfigEPNS_11SpellerImplEPKNS_16LocalWordSetInfoE @734
    _ZN8aspeller7MultiWSD0Ev @735
    _ZN8aspeller7MultiWSD1Ev @736
    _ZN8aspeller7SuggestD0Ev @737
    _ZN8aspeller7SuggestD1Ev @738
    _ZN8aspeller8Language5setupEN7acommon10ParmStringEPNS1_6ConfigE @739
    _ZN8aspeller8LanguageC1ERKS0_ @740
    _ZN8aspeller8LanguageC1Ev @741
    _ZN8aspeller8LanguageaSERKS0_ @742
    _ZN8aspeller8callbackIN7acommon10ParmStringEEENS1_8PosibErrIvEEPNS_11SpellerImplEPKNS1_7KeyInfoET_NS_12UpdateMember4TypeE @743
    _ZN8aspeller8callbackIbEEN7acommon8PosibErrIvEEPNS_11SpellerImplEPKNS1_7KeyInfoET_NS_12UpdateMember4TypeE @744
    _ZN8aspeller8callbackIiEEN7acommon8PosibErrIvEEPNS_11SpellerImplEPKNS1_7KeyInfoET_NS_12UpdateMember4TypeE @745
    _ZN8aspeller8fix_caseERKNS_8LanguageENS_11CasePatternEN7acommon10ParmStringE @746
    _ZN8aspeller9find_fileERN7acommon6StringERKS1_S4_S4_PKc @747
    _ZN8aspellereqERKNS_7DataSet2IdES3_ @748
    _ZNK24aspeller_default_suggest18SuggestionListImpl4sizeEv @749
    _ZNK24aspeller_default_suggest18SuggestionListImpl5cloneEv @750
    _ZNK24aspeller_default_suggest18SuggestionListImpl5emptyEv @751
    _ZNK24aspeller_default_suggest18SuggestionListImpl8elementsEv @752
    _ZNK28aspeller_default_readonly_ws10ReadOnlyWS17detailed_elementsEv @753
    _ZNK28aspeller_default_readonly_ws10ReadOnlyWS18words_w_soundslikeEN8aspeller14SoundslikeWordE @754
    _ZNK28aspeller_default_readonly_ws10ReadOnlyWS18words_w_soundslikeEPKc @755
    _ZNK28aspeller_default_readonly_ws10ReadOnlyWS19soundslike_elementsEv @756
    _ZNK28aspeller_default_readonly_ws10ReadOnlyWS25SoundslikeWordsEmulSingle5cloneEv @757
    _ZNK28aspeller_default_readonly_ws10ReadOnlyWS25SoundslikeWordsEmulSingle6at_endEv @758
    _ZNK28aspeller_default_readonly_ws10ReadOnlyWS4sizeEv @759
    _ZNK28aspeller_default_readonly_ws10ReadOnlyWS5emptyEv @760
    _ZNK28aspeller_default_readonly_ws10ReadOnlyWS6lookupEN7acommon10ParmStringERKN8aspeller16SensitiveCompareE @761
    _ZNK28aspeller_default_writable_wl10WritableWS17detailed_elementsEv @762
    _ZNK28aspeller_default_writable_wl10WritableWS18words_w_soundslikeEN8aspeller14SoundslikeWordE @763
    _ZNK28aspeller_default_writable_wl10WritableWS18words_w_soundslikeEPKc @764
    _ZNK28aspeller_default_writable_wl10WritableWS19soundslike_elementsEv @765
    _ZNK28aspeller_default_writable_wl10WritableWS4sizeEv @766
    _ZNK28aspeller_default_writable_wl10WritableWS5emptyEv @767
    _ZNK28aspeller_default_writable_wl10WritableWS6lookupEN7acommon10ParmStringERKN8aspeller16SensitiveCompareE @768
    _ZNK30aspeller_default_writable_repl13WritableReplS18repls_w_soundslikeEN8aspeller14SoundslikeWordE @769
    _ZNK30aspeller_default_writable_repl13WritableReplS18repls_w_soundslikeEPKc @770
    _ZNK30aspeller_default_writable_repl13WritableReplS19ElementsVirEmulImpl5cloneEv @771
    _ZNK30aspeller_default_writable_repl13WritableReplS19ElementsVirEmulImpl6at_endEv @772
    _ZNK30aspeller_default_writable_repl13WritableReplS19soundslike_elementsEv @773
    _ZNK30aspeller_default_writable_repl13WritableReplS4sizeEv @774
    _ZNK30aspeller_default_writable_repl13WritableReplS5emptyEv @775
    _ZNK30aspeller_default_writable_repl13WritableReplS8elementsEv @776
    _ZNK7acommon10ConvDirectIcE7convertEPKciRNS_10CharVectorE @777
    _ZNK7acommon10ConvDirectIjE7convertEPKciRNS_10CharVectorE @778
    _ZNK7acommon10ConvDirectItE7convertEPKciRNS_10CharVectorE @779
    _ZNK7acommon10DecodeUtf86decodeEPKciRNS_16FilterCharVectorE @780
    _ZNK7acommon10EncodeUtf86encodeEPKNS_10FilterCharES3_RNS_10CharVectorE @781
    _ZNK7acommon10HashStringINS_6StringEEclERKS1_ @782
    _ZNK7acommon10StringList5cloneEv @783
    _ZNK7acommon10StringList8elementsEv @784
    _ZNK7acommon12DecodeDirectIhE6decodeEPKciRNS_16FilterCharVectorE @785
    _ZNK7acommon12DecodeDirectIjE6decodeEPKciRNS_16FilterCharVectorE @786
    _ZNK7acommon12DecodeDirectItE6decodeEPKciRNS_16FilterCharVectorE @787
    _ZNK7acommon12DecodeLookup6decodeEPKciRNS_16FilterCharVectorE @788
    _ZNK7acommon12DictInfoList4sizeEv @789
    _ZNK7acommon12DictInfoList5emptyEv @790
    _ZNK7acommon12DictInfoList8elementsEv @791
    _ZNK7acommon12EncodeDirectIhE13encode_directEPNS_10FilterCharES3_ @792
    _ZNK7acommon12EncodeDirectIhE6encodeEPKNS_10FilterCharES4_RNS_10CharVectorE @793
    _ZNK7acommon12EncodeDirectIjE13encode_directEPNS_10FilterCharES3_ @794
    _ZNK7acommon12EncodeDirectIjE6encodeEPKNS_10FilterCharES4_RNS_10CharVectorE @795
    _ZNK7acommon12EncodeDirectItE13encode_directEPNS_10FilterCharES3_ @796
    _ZNK7acommon12EncodeDirectItE6encodeEPKNS_10FilterCharES4_RNS_10CharVectorE @797
    _ZNK7acommon12EncodeLookup13encode_directEPNS_10FilterCharES2_ @798
    _ZNK7acommon12EncodeLookup6encodeEPKNS_10FilterCharES3_RNS_10CharVectorE @799
    _ZNK7acommon12PosibErrBase10handle_errEv @800
    _ZNK7acommon13FromUniLookupixEj @801
    _ZNK7acommon14ModuleInfoList4sizeEv @802
    _ZNK7acommon14ModuleInfoList5emptyEv @803
    _ZNK7acommon14ModuleInfoList8elementsEv @804
    _ZNK7acommon16ModeNotifierImpl5cloneEPNS_6ConfigE @805
    _ZNK7acommon18MakeVirEnumerationIN24aspeller_default_suggest18SuggestionListImpl5ParmsENS_17StringEnumerationEE5cloneEv @806
    _ZNK7acommon18MakeVirEnumerationIN24aspeller_default_suggest18SuggestionListImpl5ParmsENS_17StringEnumerationEE6at_endEv @807
    _ZNK7acommon18MakeVirEnumerationIN28aspeller_default_readonly_ws10ReadOnlyWS13ElementsParmsENS_14VirEnumerationIN8aspeller13BasicWordInfoEEEE5cloneEv @808
    _ZNK7acommon18MakeVirEnumerationIN28aspeller_default_readonly_ws10ReadOnlyWS13ElementsParmsENS_14VirEnumerationIN8aspeller13BasicWordInfoEEEE6at_endEv @809
    _ZNK7acommon18MakeVirEnumerationIN28aspeller_default_readonly_ws10ReadOnlyWS20SoundslikeWordsParmsENS_14VirEnumerationIN8aspeller13BasicWordInfoEEEE5cloneEv @810
    _ZNK7acommon18MakeVirEnumerationIN28aspeller_default_readonly_ws10ReadOnlyWS20SoundslikeWordsParmsENS_14VirEnumerationIN8aspeller13BasicWordInfoEEEE6at_endEv @811
    _ZNK7acommon18MakeVirEnumerationIN28aspeller_default_readonly_ws10ReadOnlyWS23SoundslikeElementsParmsENS_14VirEnumerationIN8aspeller14SoundslikeWordEEEE5cloneEv @812
    _ZNK7acommon18MakeVirEnumerationIN28aspeller_default_readonly_ws10ReadOnlyWS23SoundslikeElementsParmsENS_14VirEnumerationIN8aspeller14SoundslikeWordEEEE6at_endEv @813
    _ZNK7acommon18MakeVirEnumerationIN28aspeller_default_readonly_ws10ReadOnlyWS24SoundslikeWordsParmsNoSLENS_14VirEnumerationIN8aspeller13BasicWordInfoEEEE5cloneEv @814
    _ZNK7acommon18MakeVirEnumerationIN28aspeller_default_readonly_ws10ReadOnlyWS24SoundslikeWordsParmsNoSLENS_14VirEnumerationIN8aspeller13BasicWordInfoEEEE6at_endEv @815
    _ZNK7acommon18MakeVirEnumerationIN28aspeller_default_readonly_ws10ReadOnlyWS27SoundslikeElementsParmsNoSLENS_14VirEnumerationIN8aspeller14SoundslikeWordEEEE5cloneEv @816
    _ZNK7acommon18MakeVirEnumerationIN28aspeller_default_readonly_ws10ReadOnlyWS27SoundslikeElementsParmsNoSLENS_14VirEnumerationIN8aspeller14SoundslikeWordEEEE6at_endEv @817
    _ZNK7acommon18MakeVirEnumerationIN28aspeller_default_writable_wl10WritableWS13ElementsParmsENS_14VirEnumerationIN8aspeller13BasicWordInfoEEEE5cloneEv @818
    _ZNK7acommon18MakeVirEnumerationIN28aspeller_default_writable_wl10WritableWS13ElementsParmsENS_14VirEnumerationIN8aspeller13BasicWordInfoEEEE6at_endEv @819
    _ZNK7acommon18MakeVirEnumerationIN28aspeller_default_writable_wl10WritableWS20SoundslikeWordsParmsENS_14VirEnumerationIN8aspeller13BasicWordInfoEEEE5cloneEv @820
    _ZNK7acommon18MakeVirEnumerationIN28aspeller_default_writable_wl10WritableWS20SoundslikeWordsParmsENS_14VirEnumerationIN8aspeller13BasicWordInfoEEEE6at_endEv @821
    _ZNK7acommon18MakeVirEnumerationIN28aspeller_default_writable_wl10WritableWS23SoundslikeElementsParmsENS_14VirEnumerationIN8aspeller14SoundslikeWordEEEE5cloneEv @822
    _ZNK7acommon18MakeVirEnumerationIN28aspeller_default_writable_wl10WritableWS23SoundslikeElementsParmsENS_14VirEnumerationIN8aspeller14SoundslikeWordEEEE6at_endEv @823
    _ZNK7acommon18MakeVirEnumerationIN30aspeller_default_writable_repl13WritableReplS21ReplsWSoundslikeParmsENS_14VirEnumerationIN8aspeller15ReplacementListEEEE5cloneEv @824
    _ZNK7acommon18MakeVirEnumerationIN30aspeller_default_writable_repl13WritableReplS21ReplsWSoundslikeParmsENS_14VirEnumerationIN8aspeller15ReplacementListEEEE6at_endEv @825
    _ZNK7acommon18MakeVirEnumerationIN30aspeller_default_writable_repl13WritableReplS23SoundslikeElementsParmsENS_14VirEnumerationIN8aspeller14SoundslikeWordEEEE5cloneEv @826
    _ZNK7acommon18MakeVirEnumerationIN30aspeller_default_writable_repl13WritableReplS23SoundslikeElementsParmsENS_14VirEnumerationIN8aspeller14SoundslikeWordEEEE6at_endEv @827
    _ZNK7acommon18MakeVirEnumerationIN8aspeller11SpellerImpl17DataSetCollection5ParmsENS_14VirEnumerationIPNS1_7DataSetEEEE5cloneEv @828
    _ZNK7acommon18MakeVirEnumerationIN8aspeller11SpellerImpl17DataSetCollection5ParmsENS_14VirEnumerationIPNS1_7DataSetEEEE6at_endEv @829
    _ZNK7acommon18MakeVirEnumerationIN8aspeller7MultiWS13ElementsParmsENS_14VirEnumerationINS1_12LocalWordSetEEEE5cloneEv @830
    _ZNK7acommon18MakeVirEnumerationIN8aspeller7MultiWS13ElementsParmsENS_14VirEnumerationINS1_12LocalWordSetEEEE6at_endEv @831
    _ZNK7acommon18MakeVirEnumerationIN8aspeller8StrParmsIN9__gnu_cxx17__normal_iteratorIPKNS_6StringESt6vectorIS5_SaIS5_EEEEEENS_14VirEnumerationIPKcEEE5cloneEv @832
    _ZNK7acommon18MakeVirEnumerationIN8aspeller8StrParmsIN9__gnu_cxx17__normal_iteratorIPKNS_6StringESt6vectorIS5_SaIS5_EEEEEENS_14VirEnumerationIPKcEEE6at_endEv @833
    _ZNK7acommon19DictInfoEnumeration5cloneEv @834
    _ZNK7acommon19DictInfoEnumeration6at_endEv @835
    _ZNK7acommon20PossibleElementsEmul5cloneEv @836
    _ZNK7acommon20PossibleElementsEmul6at_endEv @837
    _ZNK7acommon20StringMapEnumeration5cloneEv @838
    _ZNK7acommon20StringMapEnumeration6at_endEv @839
    _ZNK7acommon21ModuleInfoEnumeration5cloneEv @840
    _ZNK7acommon21ModuleInfoEnumeration6at_endEv @841
    _ZNK7acommon21StringListEnumeration5cloneEv @842
    _ZNK7acommon21StringListEnumeration6at_endEv @843
    _ZNK7acommon24MakeAlwaysEndEnumerationIN8aspeller13BasicWordInfoEE5cloneEv @844
    _ZNK7acommon24MakeAlwaysEndEnumerationIN8aspeller13BasicWordInfoEE6at_endEv @845
    _ZNK7acommon24MakeAlwaysEndEnumerationIN8aspeller15ReplacementListEE5cloneEv @846
    _ZNK7acommon24MakeAlwaysEndEnumerationIN8aspeller15ReplacementListEE6at_endEv @847
    _ZNK7acommon4hashIPKcEclES2_ @848
    _ZNK7acommon5Error4is_aEPKNS_9ErrorInfoE @849
    _ZNK7acommon6Config11get_defaultENS_10ParmStringE @850
    _ZNK7acommon6Config12retrieve_intENS_10ParmStringE @851
    _ZNK7acommon6Config13retrieve_boolENS_10ParmStringE @852
    _ZNK7acommon6Config13retrieve_listENS_10ParmStringEPNS_16MutableContainerE @853
    _ZNK7acommon6Config4haveENS_10ParmStringE @854
    _ZNK7acommon6Config5cloneEv @855
    _ZNK7acommon6Config7keyinfoENS_10ParmStringE @856
    _ZNK7acommon6Config8retrieveENS_10ParmStringE @857
    _ZNK7acommon6Config9notifiersEv @858
    _ZNK7acommon6Encode13encode_directEPNS_10FilterCharES2_ @859
    _ZNK7acommon7CopyPtrIN8aspeller8LanguageEE3getEv @860
    _ZNK7acommon7CopyPtrIN8aspeller8LanguageEE5Parms5cloneEPKS2_ @861
    _ZNK7acommon7CopyPtrIN8aspeller8LanguageEE5Parms6assignERPS2_PKS2_ @862
    _ZNK7acommon7CopyPtrIN8aspeller8LanguageEEcvPS2_Ev @863
    _ZNK7acommon7CopyPtrIN8aspeller8LanguageEEdeEv @864
    _ZNK7acommon7CopyPtrIN8aspeller8LanguageEEptEv @865
    _ZNK7acommon8ClonePtrIN8aspeller10SoundslikeEE3getEv @866
    _ZNK7acommon8ClonePtrIN8aspeller10SoundslikeEE5Parms5cloneEPKS2_ @867
    _ZNK7acommon8ClonePtrIN8aspeller10SoundslikeEE5Parms6assignERPS2_PKS2_ @868
    _ZNK7acommon8ClonePtrIN8aspeller10SoundslikeEEcvPS2_Ev @869
    _ZNK7acommon8ClonePtrIN8aspeller10SoundslikeEEdeEv @870
    _ZNK7acommon8ClonePtrIN8aspeller10SoundslikeEEptEv @871
    _ZNK7acommon8Notifier5cloneEPNS_6ConfigE @872
    _ZNK7acommon9StringMap6lookupENS_10ParmStringE @873
    _ZNK7acommon9StringMap8elementsEv @874
    _ZNK8aspeller11SpellerImpl12use_to_checkERKNS_7DataSet2IdE @875
    _ZNK8aspeller11SpellerImpl13num_wordlistsEv @876
    _ZNK8aspeller11SpellerImpl14main_word_listEv @877
    _ZNK8aspeller11SpellerImpl14use_to_suggestERKNS_7DataSet2IdE @878
    _ZNK8aspeller11SpellerImpl15save_on_saveallERKNS_7DataSet2IdE @879
    _ZNK8aspeller11SpellerImpl17session_word_listEv @880
    _ZNK8aspeller11SpellerImpl18personal_word_listEv @881
    _ZNK8aspeller11SpellerImpl3ownERKNS_7DataSet2IdE @882
    _ZNK8aspeller11SpellerImpl4haveENS0_9SpecialIdE @883
    _ZNK8aspeller11SpellerImpl4haveERKNS_7DataSet2IdE @884
    _ZNK8aspeller11SpellerImpl8check_idERKNS_7DataSet2IdE @885
    _ZNK8aspeller11SpellerImpl9lang_nameEv @886
    _ZNK8aspeller11SpellerImpl9wordlistsEv @887
    _ZNK8aspeller12BasicWordSet5emptyEv @888
    _ZNK8aspeller12BasicWordSet8elementsEv @889
    _ZNK8aspeller12CompoundInfo5writeERN7acommon7OStreamERKNS_8LanguageE @890
    _ZNK8aspeller12NoSoundslike13to_soundslikeEN7acommon10ParmStringE @891
    _ZNK8aspeller12NoSoundslike16soundslike_charsEv @892
    _ZNK8aspeller12NoSoundslike4nameEv @893
    _ZNK8aspeller12NoSoundslike5cloneEv @894
    _ZNK8aspeller12NoSoundslike7versionEv @895
    _ZNK8aspeller12SuggestParms5cloneEv @896
    _ZNK8aspeller13BasicMultiSet5emptyEv @897
    _ZNK8aspeller13BasicMultiSet8elementsEv @898
    _ZNK8aspeller13BasicWordInfo5writeERN7acommon7OStreamERKNS_8LanguageERKNS_11ConvertWordE @899
    _ZNK8aspeller14SingleWordInfo11append_wordERN7acommon6StringERKNS_8LanguageERKNS_11ConvertWordE @900
    _ZNK8aspeller15InsensitiveHashclEPKc @901
    _ZNK8aspeller15PhonetParmsImpl5cloneEv @902
    _ZNK8aspeller16InsensitiveEqualclEPKcS2_ @903
    _ZNK8aspeller16PhonetSoundslike13to_soundslikeEN7acommon10ParmStringE @904
    _ZNK8aspeller16PhonetSoundslike16soundslike_charsEv @905
    _ZNK8aspeller16PhonetSoundslike4nameEv @906
    _ZNK8aspeller16PhonetSoundslike5cloneEv @907
    _ZNK8aspeller16PhonetSoundslike7versionEv @908
    _ZNK8aspeller16SensitiveCompareclEPKcS2_ @909
    _ZNK8aspeller17GenericSoundslike13to_soundslikeEN7acommon10ParmStringE @910
    _ZNK8aspeller17GenericSoundslike16soundslike_charsEv @911
    _ZNK8aspeller17GenericSoundslike4nameEv @912
    _ZNK8aspeller17GenericSoundslike5cloneEv @913
    _ZNK8aspeller17GenericSoundslike7versionEv @914
    _ZNK8aspeller19BasicReplacementSet5emptyEv @915
    _ZNK8aspeller23BasicWordSetEnumeration5cloneEv @916
    _ZNK8aspeller23BasicWordSetEnumeration6at_endEv @917
    _ZNK8aspeller6Primes8is_primeEj @918
    _ZNK8aspeller7DataSet11is_attachedEv @919
    _ZNK8aspeller7DataSet9lang_nameEv @920
    _ZNK8aspeller7MultiWS17detailed_elementsEv @921
    _ZNK8aspeller7MultiWS4sizeEv @922
    _ZNK8aspeller8WordInfo5writeERN7acommon7OStreamERKNS_8LanguageERKNS_11ConvertWordE @923
    _ZNK8aspeller8WordInfo8get_wordERN7acommon6StringERKNS_8LanguageERKNS_11ConvertWordE @924
    _ZNSs12_S_constructIN9__gnu_cxx17__normal_iteratorIPcSsEEEES2_T_S4_RKSaIcESt20forward_iterator_tag @925
    _ZNSs12_S_constructIPKcEEPcT_S3_RKSaIcESt20forward_iterator_tag @926
    _ZNSs15_M_replace_safeIN9__gnu_cxx17__normal_iteratorIPcSsEEEERSsS3_S3_T_S5_ @927
    _ZNSs15_M_replace_safeIPKcEERSsN9__gnu_cxx17__normal_iteratorIPcSsEES6_T_S7_ @928
    _ZNSt10_List_baseIN24aspeller_default_suggest14ScoreWordSoundESaIS1_EEC2ERKS2_ @929
    _ZNSt10_List_baseIN24aspeller_default_suggest14ScoreWordSoundESaIS1_EED2Ev @930
    _ZNSt10_List_baseIN7acommon12StringBuffer3BufESaIS2_EE5clearEv @931
    _ZNSt10_List_baseIN7acommon12StringBuffer3BufESaIS2_EEC2ERKS3_ @932
    _ZNSt10_List_baseIN7acommon6StringESaIS1_EE5clearEv @933
    _ZNSt10_List_baseIN7acommon6StringESaIS1_EEC2ERKS2_ @934
    _ZNSt10_List_baseIN8aspeller11SpellerImpl17DataSetCollection4ItemESaIS3_EEC2ERKS4_ @935
    _ZNSt10_List_baseIN8aspeller11SpellerImpl17DataSetCollection4ItemESaIS3_EED2Ev @936
    _ZNSt12_Vector_baseIN30aspeller_default_writable_repl13WritableReplS19RealReplacementListESaIS2_EEC2EjRKS3_ @937
    _ZNSt12_Vector_baseIN7acommon6StringESaIS1_EEC2EjRKS2_ @938
    _ZNSt12_Vector_baseIPKcSaIS1_EEC2EjRKS2_ @939
    _ZNSt12_Vector_baseIcSaIcEEC2EjRKS0_ @940
    _ZNSt12_Vector_baseIsSaIsEEC2EjRKS0_ @941
    _ZNSt14_Bit_referenceaSEb @942
    _ZNSt14__simple_allocIN30aspeller_default_writable_repl13WritableReplS19RealReplacementListESt24__default_alloc_templateILb1ELi0EEE10deallocateEPS2_j @943
    _ZNSt14__simple_allocIN7acommon10FilterCharESt24__default_alloc_templateILb1ELi0EEE10deallocateEPS1_j @944
    _ZNSt14__simple_allocIN7acommon6StringESt24__default_alloc_templateILb1ELi0EEE10deallocateEPS1_j @945
    _ZNSt14__simple_allocIN7acommon7DictExtESt24__default_alloc_templateILb1ELi0EEE10deallocateEPS1_j @946
    _ZNSt14__simple_allocIN7acommon9TexFilter7CommandESt24__default_alloc_templateILb1ELi0EEE10deallocateEPS2_j @947
    _ZNSt14__simple_allocIN8aspeller12LocalWordSetESt24__default_alloc_templateILb1ELi0EEE10deallocateEPS1_j @948
    _ZNSt14__simple_allocIPKcSt24__default_alloc_templateILb1ELi0EEE10deallocateEPS1_j @949
    _ZNSt14__simple_allocIPN7acommon16IndividualFilterESt24__default_alloc_templateILb1ELi0EEE10deallocateEPS2_j @950
    _ZNSt14__simple_allocIPN7acommon8NotifierESt24__default_alloc_templateILb1ELi0EEE10deallocateEPS2_j @951
    _ZNSt14__simple_allocISt10_List_nodeIN24aspeller_default_suggest14ScoreWordSoundEESt24__default_alloc_templateILb1ELi0EEE10deallocateEPS3_j @952
    _ZNSt14__simple_allocISt10_List_nodeIN7acommon12StringBuffer3BufEESt24__default_alloc_templateILb1ELi0EEE10deallocateEPS4_j @953
    _ZNSt14__simple_allocISt10_List_nodeIN7acommon6StringEESt24__default_alloc_templateILb1ELi0EEE10deallocateEPS3_j @954
    _ZNSt14__simple_allocISt10_List_nodeIN8aspeller11SpellerImpl17DataSetCollection4ItemEESt24__default_alloc_templateILb1ELi0EEE10deallocateEPS5_j @955
    _ZNSt14__simple_allocISt4pairIPKcN28aspeller_default_readonly_ws21SoundslikeLookupParms4ListEESt24__default_alloc_templateILb1ELi0EEE10deallocateEPS6_j @956
    _ZNSt14__simple_allocIcSt24__default_alloc_templateILb1ELi0EEE10deallocateEPcj @957
    _ZNSt14__simple_allocIhSt24__default_alloc_templateILb1ELi0EEE10deallocateEPhj @958
    _ZNSt14__simple_allocIjSt24__default_alloc_templateILb1ELi0EEE10deallocateEPjj @959
    _ZNSt14__simple_allocImSt24__default_alloc_templateILb1ELi0EEE10deallocateEPmj @960
    _ZNSt14__simple_allocIsSt24__default_alloc_templateILb1ELi0EEE10deallocateEPsj @961
    _ZNSt18_Bit_iterator_base7_M_incrEi @962
    _ZNSt19_Bvector_alloc_baseISaIbELb1EE13_M_deallocateEv @963
    _ZNSt19_Bvector_alloc_baseISaIbELb1EEC2ERKS0_ @964
    _ZNSt4listIN24aspeller_default_suggest14ScoreWordSoundESaIS1_EE11_M_transferESt14_List_iteratorIS1_RS1_PS1_ES7_S7_ @965
    _ZNSt4listIN24aspeller_default_suggest14ScoreWordSoundESaIS1_EE14_M_create_nodeERKS1_ @966
    _ZNSt4listIN24aspeller_default_suggest14ScoreWordSoundESaIS1_EE4sortEv @967
    _ZNSt4listIN24aspeller_default_suggest14ScoreWordSoundESaIS1_EE5mergeERS3_ @968
    _ZNSt4listIN7acommon12StringBuffer3BufESaIS2_EE14_M_create_nodeERKS2_ @969
    _ZNSt4listIN7acommon6StringESaIS1_EE14_M_create_nodeERKS1_ @970
    _ZNSt4listIN8aspeller11SpellerImpl17DataSetCollection4ItemESaIS3_EE14_M_create_nodeERKS3_ @971
    _ZNSt6vectorIN30aspeller_default_writable_repl13WritableReplS19RealReplacementListESaIS2_EE13_M_insert_auxEN9__gnu_cxx17__normal_iteratorIPS2_S4_EERKS2_ @972
    _ZNSt6vectorIN7acommon10FilterCharESaIS1_EE13_M_insert_auxEN9__gnu_cxx17__normal_iteratorIPS1_S3_EERKS1_ @973
    _ZNSt6vectorIN7acommon10FilterCharESaIS1_EE9push_backERKS1_ @974
    _ZNSt6vectorIN7acommon10FilterCharESaIS1_EED2Ev @975
    _ZNSt6vectorIN7acommon6StringESaIS1_EE13_M_insert_auxEN9__gnu_cxx17__normal_iteratorIPS1_S3_EERKS1_ @976
    _ZNSt6vectorIN7acommon6StringESaIS1_EE14_M_fill_insertEN9__gnu_cxx17__normal_iteratorIPS1_S3_EEjRKS1_ @977
    _ZNSt6vectorIN7acommon6StringESaIS1_EE20_M_allocate_and_copyIN9__gnu_cxx17__normal_iteratorIPKS1_S3_EEEEPS1_jT_SB_ @978
    _ZNSt6vectorIN7acommon6StringESaIS1_EE5eraseEN9__gnu_cxx17__normal_iteratorIPS1_S3_EES7_ @979
    _ZNSt6vectorIN7acommon6StringESaIS1_EED1Ev @980
    _ZNSt6vectorIN7acommon6StringESaIS1_EEaSERKS3_ @981
    _ZNSt6vectorIN7acommon7DictExtESaIS1_EE13_M_insert_auxEN9__gnu_cxx17__normal_iteratorIPS1_S3_EERKS1_ @982
    _ZNSt6vectorIN7acommon7DictExtESaIS1_EE20_M_allocate_and_copyIN9__gnu_cxx17__normal_iteratorIPKS1_S3_EEEEPS1_jT_SB_ @983
    _ZNSt6vectorIN7acommon7DictExtESaIS1_EE5eraseEN9__gnu_cxx17__normal_iteratorIPS1_S3_EES7_ @984
    _ZNSt6vectorIN7acommon7DictExtESaIS1_EED2Ev @985
    _ZNSt6vectorIN7acommon7DictExtESaIS1_EEaSERKS3_ @986
    _ZNSt6vectorIN7acommon9TexFilter7CommandESaIS2_EE13_M_insert_auxEN9__gnu_cxx17__normal_iteratorIPS2_S4_EERKS2_ @987
    _ZNSt6vectorIN7acommon9TexFilter7CommandESaIS2_EE14_M_fill_insertEN9__gnu_cxx17__normal_iteratorIPS2_S4_EEjRKS2_ @988
    _ZNSt6vectorIN7acommon9TexFilter7CommandESaIS2_EE5eraseEN9__gnu_cxx17__normal_iteratorIPS2_S4_EES8_ @989
    _ZNSt6vectorIN7acommon9TexFilter7CommandESaIS2_EE9push_backERKS2_ @990
    _ZNSt6vectorIN7acommon9TexFilter7CommandESaIS2_EED2Ev @991
    _ZNSt6vectorIN8aspeller12LocalWordSetESaIS1_EE13_M_insert_auxEN9__gnu_cxx17__normal_iteratorIPS1_S3_EERKS1_ @992
    _ZNSt6vectorIPKcSaIS1_EE13_M_insert_auxEN9__gnu_cxx17__normal_iteratorIPS1_S3_EERKS1_ @993
    _ZNSt6vectorIPKcSaIS1_EE20_M_allocate_and_copyIPS1_EES5_jT_S6_ @994
    _ZNSt6vectorIPKcSaIS1_EED1Ev @995
    _ZNSt6vectorIPN7acommon16IndividualFilterESaIS2_EE13_M_insert_auxEN9__gnu_cxx17__normal_iteratorIPS2_S4_EERKS2_ @996
    _ZNSt6vectorIPN7acommon8NotifierESaIS2_EE13_M_insert_auxEN9__gnu_cxx17__normal_iteratorIPS2_S4_EERKS2_ @997
    _ZNSt6vectorIPN7acommon8NotifierESaIS2_EE5eraseEN9__gnu_cxx17__normal_iteratorIPS2_S4_EES8_ @998
    _ZNSt6vectorISt4pairIPKcN28aspeller_default_readonly_ws21SoundslikeLookupParms4ListEESaIS6_EED1Ev @999
    _ZNSt6vectorIbSaIbEE14_M_fill_insertESt13_Bit_iteratorjb @1000
    _ZNSt6vectorIcSaIcEE13_M_insert_auxEN9__gnu_cxx17__normal_iteratorIPcS1_EERKc @1001
    _ZNSt6vectorIcSaIcEE14_M_fill_insertEN9__gnu_cxx17__normal_iteratorIPcS1_EEjRKc @1002
    _ZNSt6vectorIcSaIcEE15_M_range_insertIPKcEEvN9__gnu_cxx17__normal_iteratorIPcS1_EET_S9_St20forward_iterator_tag @1003
    _ZNSt6vectorIcSaIcEE20_M_allocate_and_copyIN9__gnu_cxx17__normal_iteratorIPKcS1_EEEEPcjT_S9_ @1004
    _ZNSt6vectorIcSaIcEE20_M_allocate_and_copyIPcEES3_jT_S4_ @1005
    _ZNSt6vectorIcSaIcEE5eraseEN9__gnu_cxx17__normal_iteratorIPcS1_EES5_ @1006
    _ZNSt6vectorIcSaIcEE6resizeEjRKc @1007
    _ZNSt6vectorIcSaIcEED1Ev @1008
    _ZNSt6vectorIcSaIcEED2Ev @1009
    _ZNSt6vectorIcSaIcEEaSERKS1_ @1010
    _ZNSt6vectorIjSaIjEE14_M_fill_insertEN9__gnu_cxx17__normal_iteratorIPjS1_EEjRKj @1011
    _ZNSt6vectorIjSaIjEE5eraseEN9__gnu_cxx17__normal_iteratorIPjS1_EES5_ @1012
    _ZNSt6vectorIsSaIsEE14_M_fill_insertEN9__gnu_cxx17__normal_iteratorIPsS1_EEjRKs @1013
    _ZNSt6vectorIsSaIsEE5eraseEN9__gnu_cxx17__normal_iteratorIPsS1_EES5_ @1014
    _ZNSt6vectorIsSaIsEED1Ev @1015
    _ZSt10__distanceISt14_List_iteratorIN8aspeller11SpellerImpl17DataSetCollection4ItemERKS4_PS5_EENSt15iterator_traitsIT_E15difference_typeESA_SA_St18input_iterator_tag @1016
    _ZSt13__destroy_auxIN9__gnu_cxx17__normal_iteratorIPN7acommon10FilterCharESt6vectorIS3_SaIS3_EEEEEvT_S9_12__false_type @1017
    _ZSt13__destroy_auxIN9__gnu_cxx17__normal_iteratorIPN7acommon7DictExtESt6vectorIS3_SaIS3_EEEEEvT_S9_12__false_type @1018
    _ZSt13__destroy_auxIPN30aspeller_default_writable_repl13WritableReplS19RealReplacementListEEvT_S4_12__false_type @1019
    _ZSt13__destroy_auxIPN7acommon10FilterCharEEvT_S3_12__false_type @1020
    _ZSt13__destroy_auxIPN7acommon6StringEEvT_S3_12__false_type @1021
    _ZSt13__destroy_auxIPN7acommon7DictExtEEvT_S3_12__false_type @1022
    _ZSt15__copy_backwardIPN30aspeller_default_writable_repl13WritableReplS19RealReplacementListES3_ET0_T_S5_S4_St26random_access_iterator_tag @1023
    _ZSt15__copy_backwardIPN7acommon10FilterCharES2_ET0_T_S4_S3_St26random_access_iterator_tag @1024
    _ZSt15__copy_backwardIPN7acommon6StringES2_ET0_T_S4_S3_St26random_access_iterator_tag @1025
    _ZSt15__copy_backwardIPN7acommon7DictExtES2_ET0_T_S4_S3_St26random_access_iterator_tag @1026
    _ZSt15__copy_backwardIPN7acommon9TexFilter7CommandES3_ET0_T_S5_S4_St26random_access_iterator_tag @1027
    _ZSt15__copy_backwardIPN8aspeller12LocalWordSetES2_ET0_T_S4_S3_St26random_access_iterator_tag @1028
    _ZSt15__copy_backwardISt13_Bit_iteratorS0_ET0_T_S2_S1_St26random_access_iterator_tag @1029
    _ZSt24__uninitialized_copy_auxIN9__gnu_cxx17__normal_iteratorIPKN30aspeller_default_writable_repl13WritableReplS19RealReplacementListESt6vectorIS4_SaIS4_EEEEPS4_ET0_T_SD_SC_12__false_type @1030
    _ZSt24__uninitialized_copy_auxIN9__gnu_cxx17__normal_iteratorIPKN7acommon6StringESt6vectorIS3_SaIS3_EEEEPS3_ET0_T_SC_SB_12__false_type @1031
    _ZSt24__uninitialized_copy_auxIN9__gnu_cxx17__normal_iteratorIPKN7acommon7DictExtESt6vectorIS3_SaIS3_EEEEPS3_ET0_T_SC_SB_12__false_type @1032
    _ZSt24__uninitialized_copy_auxIN9__gnu_cxx17__normal_iteratorIPN30aspeller_default_writable_repl13WritableReplS19RealReplacementListESt6vectorIS4_SaIS4_EEEES9_ET0_T_SB_SA_12__false_type @1033
    _ZSt24__uninitialized_copy_auxIN9__gnu_cxx17__normal_iteratorIPN7acommon10FilterCharESt6vectorIS3_SaIS3_EEEES8_ET0_T_SA_S9_12__false_type @1034
    _ZSt24__uninitialized_copy_auxIN9__gnu_cxx17__normal_iteratorIPN7acommon6StringESt6vectorIS3_SaIS3_EEEES4_ET0_T_SA_S9_12__false_type @1035
    _ZSt24__uninitialized_copy_auxIN9__gnu_cxx17__normal_iteratorIPN7acommon6StringESt6vectorIS3_SaIS3_EEEES8_ET0_T_SA_S9_12__false_type @1036
    _ZSt24__uninitialized_copy_auxIN9__gnu_cxx17__normal_iteratorIPN7acommon7DictExtESt6vectorIS3_SaIS3_EEEES8_ET0_T_SA_S9_12__false_type @1037
    _ZSt24__uninitialized_copy_auxIN9__gnu_cxx17__normal_iteratorIPN7acommon9TexFilter7CommandESt6vectorIS4_SaIS4_EEEES5_ET0_T_SB_SA_12__false_type @1038
    _ZSt24__uninitialized_copy_auxIN9__gnu_cxx17__normal_iteratorIPN7acommon9TexFilter7CommandESt6vectorIS4_SaIS4_EEEES9_ET0_T_SB_SA_12__false_type @1039
    _ZSt24__uninitialized_copy_auxIN9__gnu_cxx17__normal_iteratorIPN8aspeller12LocalWordSetESt6vectorIS3_SaIS3_EEEES8_ET0_T_SA_S9_12__false_type @1040
    _ZSt24__uninitialized_copy_auxIPN7acommon6StringES2_ET0_T_S4_S3_12__false_type @1041
    _ZSt24__uninitialized_copy_auxIPN7acommon9TexFilter7CommandES3_ET0_T_S5_S4_12__false_type @1042
    _ZSt26__uninitialized_fill_n_auxIN9__gnu_cxx17__normal_iteratorIPN7acommon6StringESt6vectorIS3_SaIS3_EEEEjS3_ET_S9_T0_RKT1_12__false_type @1043
    _ZSt26__uninitialized_fill_n_auxIN9__gnu_cxx17__normal_iteratorIPN7acommon9TexFilter7CommandESt6vectorIS4_SaIS4_EEEEjS4_ET_SA_T0_RKT1_12__false_type @1044
    _ZSt26__uninitialized_fill_n_auxIPN7acommon6StringEjS1_ET_S3_T0_RKT1_12__false_type @1045
    _ZSt26__uninitialized_fill_n_auxIPN7acommon9TexFilter7CommandEjS2_ET_S4_T0_RKT1_12__false_type @1046
    _ZSt26__uninitialized_fill_n_auxIPSt4pairIPKcN28aspeller_default_readonly_ws21SoundslikeLookupParms4ListEEjS6_ET_S8_T0_RKT1_12__false_type @1047
    _ZSt3minIjERKT_S2_S2_ @1048
    _ZSt6__copyIPKN7acommon6StringEPS1_ET0_T_S6_S5_St26random_access_iterator_tag @1049
    _ZSt6__copyIPKN7acommon7DictExtEPS1_ET0_T_S6_S5_St26random_access_iterator_tag @1050
    _ZSt6__copyIPN7acommon10FilterCharES2_ET0_T_S4_S3_St26random_access_iterator_tag @1051
    _ZSt6__copyIPN7acommon6StringES2_ET0_T_S4_S3_St26random_access_iterator_tag @1052
    _ZSt6__copyIPN7acommon7DictExtES2_ET0_T_S4_S3_St26random_access_iterator_tag @1053
    _ZSt6__copyIPN7acommon9TexFilter7CommandES3_ET0_T_S5_S4_St26random_access_iterator_tag @1054
    _ZSt6__copyISt13_Bit_iteratorS0_ET0_T_S2_S1_St26random_access_iterator_tag @1055
    _ZSt6fill_nIPPKcjS1_ET_S3_T0_RKT1_ @1056
    _ZSt6fill_nIPjjjET_S1_T0_RKT1_ @1057
    _ZTIN24aspeller_default_suggest11SuggestImplE @1058 DATA
    _ZTIN24aspeller_default_suggest18SuggestionListImplE @1059 DATA
    _ZTIN28aspeller_default_readonly_ws10ReadOnlyWS25SoundslikeWordsEmulSingleE @1060 DATA
    _ZTIN28aspeller_default_readonly_ws10ReadOnlyWSE @1061 DATA
    _ZTIN28aspeller_default_writable_wl10WritableWSE @1062 DATA
    _ZTIN30aspeller_default_writable_repl13WritableReplS19ElementsVirEmulImplE @1063 DATA
    _ZTIN30aspeller_default_writable_repl13WritableReplSE @1064 DATA
    _ZTIN7acommon10BetterListE @1065 DATA
    _ZTIN7acommon10BetterSizeE @1066 DATA
    _ZTIN7acommon10CharVectorE @1067 DATA
    _ZTIN7acommon10ConvDirectIcEE @1068 DATA
    _ZTIN7acommon10ConvDirectIjEE @1069 DATA
    _ZTIN7acommon10ConvDirectItEE @1070 DATA
    _ZTIN7acommon10DecodeUtf8E @1071 DATA
    _ZTIN7acommon10EncodeUtf8E @1072 DATA
    _ZTIN7acommon10SgmlFilterE @1073 DATA
    _ZTIN7acommon10StringListE @1074 DATA
    _ZTIN7acommon11EmailFilter10QuoteCharsE @1075 DATA
    _ZTIN7acommon11EmailFilterE @1076 DATA
    _ZTIN7acommon11SgmlDecoderE @1077 DATA
    _ZTIN7acommon11SgmlEncoderE @1078 DATA
    _ZTIN7acommon12CanHaveErrorE @1079 DATA
    _ZTIN7acommon12DecodeDirectIhEE @1080 DATA
    _ZTIN7acommon12DecodeDirectIjEE @1081 DATA
    _ZTIN7acommon12DecodeDirectItEE @1082 DATA
    _ZTIN7acommon12DecodeLookupE @1083 DATA
    _ZTIN7acommon12EncodeDirectIhEE @1084 DATA
    _ZTIN7acommon12EncodeDirectIjEE @1085 DATA
    _ZTIN7acommon12EncodeDirectItEE @1086 DATA
    _ZTIN7acommon12EncodeLookupE @1087 DATA
    _ZTIN7acommon13StringIStreamE @1088 DATA
    _ZTIN7acommon14TokenizerBasicE @1089 DATA
    _ZTIN7acommon14VirEnumerationIN8aspeller12LocalWordSetEEE @1090 DATA
    _ZTIN7acommon14VirEnumerationIN8aspeller13BasicWordInfoEEE @1091 DATA
    _ZTIN7acommon14VirEnumerationIN8aspeller14SoundslikeWordEEE @1092 DATA
    _ZTIN7acommon14VirEnumerationIN8aspeller15ReplacementListEEE @1093 DATA
    _ZTIN7acommon14VirEnumerationIPKcEE @1094 DATA
    _ZTIN7acommon14VirEnumerationIPN8aspeller7DataSetEEE @1095 DATA
    _ZTIN7acommon15DocumentCheckerE @1096 DATA
    _ZTIN7acommon16IndividualFilterE @1097 DATA
    _ZTIN7acommon16ModeNotifierImplE @1098 DATA
    _ZTIN7acommon16MutableContainerE @1099 DATA
    _ZTIN7acommon17StringEnumerationE @1100 DATA
    _ZTIN7acommon18KeyInfoEnumerationE @1101 DATA
    _ZTIN7acommon18MakeVirEnumerationIN24aspeller_default_suggest18SuggestionListImpl5ParmsENS_17StringEnumerationEEE @1102 DATA
    _ZTIN7acommon18MakeVirEnumerationIN28aspeller_default_readonly_ws10ReadOnlyWS13ElementsParmsENS_14VirEnumerationIN8aspeller13BasicWordInfoEEEEE @1103 DATA
    _ZTIN7acommon18MakeVirEnumerationIN28aspeller_default_readonly_ws10ReadOnlyWS20SoundslikeWordsParmsENS_14VirEnumerationIN8aspeller13BasicWordInfoEEEEE @1104 DATA
    _ZTIN7acommon18MakeVirEnumerationIN28aspeller_default_readonly_ws10ReadOnlyWS23SoundslikeElementsParmsENS_14VirEnumerationIN8aspeller14SoundslikeWordEEEEE @1105 DATA
    _ZTIN7acommon18MakeVirEnumerationIN28aspeller_default_readonly_ws10ReadOnlyWS24SoundslikeWordsParmsNoSLENS_14VirEnumerationIN8aspeller13BasicWordInfoEEEEE @1106 DATA
    _ZTIN7acommon18MakeVirEnumerationIN28aspeller_default_readonly_ws10ReadOnlyWS27SoundslikeElementsParmsNoSLENS_14VirEnumerationIN8aspeller14SoundslikeWordEEEEE @1107 DATA
    _ZTIN7acommon18MakeVirEnumerationIN28aspeller_default_writable_wl10WritableWS13ElementsParmsENS_14VirEnumerationIN8aspeller13BasicWordInfoEEEEE @1108 DATA
    _ZTIN7acommon18MakeVirEnumerationIN28aspeller_default_writable_wl10WritableWS20SoundslikeWordsParmsENS_14VirEnumerationIN8aspeller13BasicWordInfoEEEEE @1109 DATA
    _ZTIN7acommon18MakeVirEnumerationIN28aspeller_default_writable_wl10WritableWS23SoundslikeElementsParmsENS_14VirEnumerationIN8aspeller14SoundslikeWordEEEEE @1110 DATA
    _ZTIN7acommon18MakeVirEnumerationIN30aspeller_default_writable_repl13WritableReplS21ReplsWSoundslikeParmsENS_14VirEnumerationIN8aspeller15ReplacementListEEEEE @1111 DATA
    _ZTIN7acommon18MakeVirEnumerationIN30aspeller_default_writable_repl13WritableReplS23SoundslikeElementsParmsENS_14VirEnumerationIN8aspeller14SoundslikeWordEEEEE @1112 DATA
    _ZTIN7acommon18MakeVirEnumerationIN8aspeller11SpellerImpl17DataSetCollection5ParmsENS_14VirEnumerationIPNS1_7DataSetEEEEE @1113 DATA
    _ZTIN7acommon18MakeVirEnumerationIN8aspeller7MultiWS13ElementsParmsENS_14VirEnumerationINS1_12LocalWordSetEEEEE @1114 DATA
    _ZTIN7acommon18MakeVirEnumerationIN8aspeller8StrParmsIN9__gnu_cxx17__normal_iteratorIPKNS_6StringESt6vectorIS5_SaIS5_EEEEEENS_14VirEnumerationIPKcEEEE @1115 DATA
    _ZTIN7acommon19DictInfoEnumerationE @1116 DATA
    _ZTIN7acommon20PossibleElementsEmulE @1117 DATA
    _ZTIN7acommon20StringMapEnumerationE @1118 DATA
    _ZTIN7acommon21ModuleInfoEnumerationE @1119 DATA
    _ZTIN7acommon21NotifyListBlockChangeE @1120 DATA
    _ZTIN7acommon21StringListEnumerationE @1121 DATA
    _ZTIN7acommon21StringPairEnumerationE @1122 DATA
    _ZTIN7acommon24MakeAlwaysEndEnumerationIN8aspeller13BasicWordInfoEEE @1123 DATA
    _ZTIN7acommon24MakeAlwaysEndEnumerationIN8aspeller15ReplacementListEEE @1124 DATA
    _ZTIN7acommon4ConvE @1125 DATA
    _ZTIN7acommon6BetterE @1126 DATA
    _ZTIN7acommon6ConfigE @1127 DATA
    _ZTIN7acommon6DecodeE @1128 DATA
    _ZTIN7acommon6EncodeE @1129 DATA
    _ZTIN7acommon6FilterE @1130 DATA
    _ZTIN7acommon6StringE @1131 DATA
    _ZTIN7acommon6VectorIcEE @1132 DATA
    _ZTIN7acommon7ExtsMapE @1133 DATA
    _ZTIN7acommon7FStreamE @1134 DATA
    _ZTIN7acommon7IStreamE @1135 DATA
    _ZTIN7acommon7OStreamE @1136 DATA
    _ZTIN7acommon7SpellerE @1137 DATA
    _ZTIN7acommon8ListDumpE @1138 DATA
    _ZTIN7acommon8NotifierE @1139 DATA
    _ZTIN7acommon8WordListE @1140 DATA
    _ZTIN7acommon9StringMapE @1141 DATA
    _ZTIN7acommon9TexFilter8CommandsE @1142 DATA
    _ZTIN7acommon9TexFilterE @1143 DATA
    _ZTIN7acommon9TokenizerE @1144 DATA
    _ZTIN7acommon9UrlFilterE @1145 DATA
    _ZTIN8aspeller10SoundslikeE @1146 DATA
    _ZTIN8aspeller11PhonetParmsE @1147 DATA
    _ZTIN8aspeller11SpellerImpl14ConfigNotifierE @1148 DATA
    _ZTIN8aspeller11SpellerImplE @1149 DATA
    _ZTIN8aspeller12BasicWordSetE @1150 DATA
    _ZTIN8aspeller12NoSoundslikeE @1151 DATA
    _ZTIN8aspeller12SuggestParmsE @1152 DATA
    _ZTIN8aspeller12WritableBaseINS_15WritableWordSetEEE @1153 DATA
    _ZTIN8aspeller12WritableBaseINS_22WritableReplacementSetEEE @1154 DATA
    _ZTIN8aspeller13BasicMultiSetE @1155 DATA
    _ZTIN8aspeller14SuggestionListE @1156 DATA
    _ZTIN8aspeller15LoadableDataSetE @1157 DATA
    _ZTIN8aspeller15PhonetParmsImplE @1158 DATA
    _ZTIN8aspeller15WritableDataSetE @1159 DATA
    _ZTIN8aspeller15WritableWordSetE @1160 DATA
    _ZTIN8aspeller16PhonetSoundslikeE @1161 DATA
    _ZTIN8aspeller16WritableBaseCodeE @1162 DATA
    _ZTIN8aspeller17GenericSoundslikeE @1163 DATA
    _ZTIN8aspeller19BasicReplacementSetE @1164 DATA
    _ZTIN8aspeller22WritableReplacementSetE @1165 DATA
    _ZTIN8aspeller23BasicWordSetEnumerationE @1166 DATA
    _ZTIN8aspeller7DataSetE @1167 DATA
    _ZTIN8aspeller7MultiWSE @1168 DATA
    _ZTIN8aspeller7SuggestE @1169 DATA
    _ZTISs @1170 DATA
    _ZTISt12_Vector_baseIcSaIcEE @1171 DATA
    _ZTISt18_Vector_alloc_baseIcSaIcELb1EE @1172 DATA
    _ZTISt6vectorIcSaIcEE @1173 DATA
    _ZTSN24aspeller_default_suggest11SuggestImplE @1174 DATA
    _ZTSN24aspeller_default_suggest18SuggestionListImplE @1175 DATA
    _ZTSN28aspeller_default_readonly_ws10ReadOnlyWS25SoundslikeWordsEmulSingleE @1176 DATA
    _ZTSN28aspeller_default_readonly_ws10ReadOnlyWSE @1177 DATA
    _ZTSN28aspeller_default_writable_wl10WritableWSE @1178 DATA
    _ZTSN30aspeller_default_writable_repl13WritableReplS19ElementsVirEmulImplE @1179 DATA
    _ZTSN30aspeller_default_writable_repl13WritableReplSE @1180 DATA
    _ZTSN7acommon10BetterListE @1181 DATA
    _ZTSN7acommon10BetterSizeE @1182 DATA
    _ZTSN7acommon10CharVectorE @1183 DATA
    _ZTSN7acommon10ConvDirectIcEE @1184 DATA
    _ZTSN7acommon10ConvDirectIjEE @1185 DATA
    _ZTSN7acommon10ConvDirectItEE @1186 DATA
    _ZTSN7acommon10DecodeUtf8E @1187 DATA
    _ZTSN7acommon10EncodeUtf8E @1188 DATA
    _ZTSN7acommon10SgmlFilterE @1189 DATA
    _ZTSN7acommon10StringListE @1190 DATA
    _ZTSN7acommon11EmailFilter10QuoteCharsE @1191 DATA
    _ZTSN7acommon11EmailFilterE @1192 DATA
    _ZTSN7acommon11SgmlDecoderE @1193 DATA
    _ZTSN7acommon11SgmlEncoderE @1194 DATA
    _ZTSN7acommon12CanHaveErrorE @1195 DATA
    _ZTSN7acommon12DecodeDirectIhEE @1196 DATA
    _ZTSN7acommon12DecodeDirectIjEE @1197 DATA
    _ZTSN7acommon12DecodeDirectItEE @1198 DATA
    _ZTSN7acommon12DecodeLookupE @1199 DATA
    _ZTSN7acommon12EncodeDirectIhEE @1200 DATA
    _ZTSN7acommon12EncodeDirectIjEE @1201 DATA
    _ZTSN7acommon12EncodeDirectItEE @1202 DATA
    _ZTSN7acommon12EncodeLookupE @1203 DATA
    _ZTSN7acommon13StringIStreamE @1204 DATA
    _ZTSN7acommon14TokenizerBasicE @1205 DATA
    _ZTSN7acommon14VirEnumerationIN8aspeller12LocalWordSetEEE @1206 DATA
    _ZTSN7acommon14VirEnumerationIN8aspeller13BasicWordInfoEEE @1207 DATA
    _ZTSN7acommon14VirEnumerationIN8aspeller14SoundslikeWordEEE @1208 DATA
    _ZTSN7acommon14VirEnumerationIN8aspeller15ReplacementListEEE @1209 DATA
    _ZTSN7acommon14VirEnumerationIPKcEE @1210 DATA
    _ZTSN7acommon14VirEnumerationIPN8aspeller7DataSetEEE @1211 DATA
    _ZTSN7acommon15DocumentCheckerE @1212 DATA
    _ZTSN7acommon16IndividualFilterE @1213 DATA
    _ZTSN7acommon16ModeNotifierImplE @1214 DATA
    _ZTSN7acommon16MutableContainerE @1215 DATA
    _ZTSN7acommon17StringEnumerationE @1216 DATA
    _ZTSN7acommon18KeyInfoEnumerationE @1217 DATA
    _ZTSN7acommon18MakeVirEnumerationIN24aspeller_default_suggest18SuggestionListImpl5ParmsENS_17StringEnumerationEEE @1218 DATA
    _ZTSN7acommon18MakeVirEnumerationIN28aspeller_default_readonly_ws10ReadOnlyWS13ElementsParmsENS_14VirEnumerationIN8aspeller13BasicWordInfoEEEEE @1219 DATA
    _ZTSN7acommon18MakeVirEnumerationIN28aspeller_default_readonly_ws10ReadOnlyWS20SoundslikeWordsParmsENS_14VirEnumerationIN8aspeller13BasicWordInfoEEEEE @1220 DATA
    _ZTSN7acommon18MakeVirEnumerationIN28aspeller_default_readonly_ws10ReadOnlyWS23SoundslikeElementsParmsENS_14VirEnumerationIN8aspeller14SoundslikeWordEEEEE @1221 DATA
    _ZTSN7acommon18MakeVirEnumerationIN28aspeller_default_readonly_ws10ReadOnlyWS24SoundslikeWordsParmsNoSLENS_14VirEnumerationIN8aspeller13BasicWordInfoEEEEE @1222 DATA
    _ZTSN7acommon18MakeVirEnumerationIN28aspeller_default_readonly_ws10ReadOnlyWS27SoundslikeElementsParmsNoSLENS_14VirEnumerationIN8aspeller14SoundslikeWordEEEEE @1223 DATA
    _ZTSN7acommon18MakeVirEnumerationIN28aspeller_default_writable_wl10WritableWS13ElementsParmsENS_14VirEnumerationIN8aspeller13BasicWordInfoEEEEE @1224 DATA
    _ZTSN7acommon18MakeVirEnumerationIN28aspeller_default_writable_wl10WritableWS20SoundslikeWordsParmsENS_14VirEnumerationIN8aspeller13BasicWordInfoEEEEE @1225 DATA
    _ZTSN7acommon18MakeVirEnumerationIN28aspeller_default_writable_wl10WritableWS23SoundslikeElementsParmsENS_14VirEnumerationIN8aspeller14SoundslikeWordEEEEE @1226 DATA
    _ZTSN7acommon18MakeVirEnumerationIN30aspeller_default_writable_repl13WritableReplS21ReplsWSoundslikeParmsENS_14VirEnumerationIN8aspeller15ReplacementListEEEEE @1227 DATA
    _ZTSN7acommon18MakeVirEnumerationIN30aspeller_default_writable_repl13WritableReplS23SoundslikeElementsParmsENS_14VirEnumerationIN8aspeller14SoundslikeWordEEEEE @1228 DATA
    _ZTSN7acommon18MakeVirEnumerationIN8aspeller11SpellerImpl17DataSetCollection5ParmsENS_14VirEnumerationIPNS1_7DataSetEEEEE @1229 DATA
    _ZTSN7acommon18MakeVirEnumerationIN8aspeller7MultiWS13ElementsParmsENS_14VirEnumerationINS1_12LocalWordSetEEEEE @1230 DATA
    _ZTSN7acommon18MakeVirEnumerationIN8aspeller8StrParmsIN9__gnu_cxx17__normal_iteratorIPKNS_6StringESt6vectorIS5_SaIS5_EEEEEENS_14VirEnumerationIPKcEEEE @1231 DATA
    _ZTSN7acommon19DictInfoEnumerationE @1232 DATA
    _ZTSN7acommon20PossibleElementsEmulE @1233 DATA
    _ZTSN7acommon20StringMapEnumerationE @1234 DATA
    _ZTSN7acommon21ModuleInfoEnumerationE @1235 DATA
    _ZTSN7acommon21NotifyListBlockChangeE @1236 DATA
    _ZTSN7acommon21StringListEnumerationE @1237 DATA
    _ZTSN7acommon21StringPairEnumerationE @1238 DATA
    _ZTSN7acommon24MakeAlwaysEndEnumerationIN8aspeller13BasicWordInfoEEE @1239 DATA
    _ZTSN7acommon24MakeAlwaysEndEnumerationIN8aspeller15ReplacementListEEE @1240 DATA
    _ZTSN7acommon4ConvE @1241 DATA
    _ZTSN7acommon6BetterE @1242 DATA
    _ZTSN7acommon6ConfigE @1243 DATA
    _ZTSN7acommon6DecodeE @1244 DATA
    _ZTSN7acommon6EncodeE @1245 DATA
    _ZTSN7acommon6FilterE @1246 DATA
    _ZTSN7acommon6StringE @1247 DATA
    _ZTSN7acommon6VectorIcEE @1248 DATA
    _ZTSN7acommon7ExtsMapE @1249 DATA
    _ZTSN7acommon7FStreamE @1250 DATA
    _ZTSN7acommon7IStreamE @1251 DATA
    _ZTSN7acommon7OStreamE @1252 DATA
    _ZTSN7acommon7SpellerE @1253 DATA
    _ZTSN7acommon8ListDumpE @1254 DATA
    _ZTSN7acommon8NotifierE @1255 DATA
    _ZTSN7acommon8WordListE @1256 DATA
    _ZTSN7acommon9StringMapE @1257 DATA
    _ZTSN7acommon9TexFilter8CommandsE @1258 DATA
    _ZTSN7acommon9TexFilterE @1259 DATA
    _ZTSN7acommon9TokenizerE @1260 DATA
    _ZTSN7acommon9UrlFilterE @1261 DATA
    _ZTSN8aspeller10SoundslikeE @1262 DATA
    _ZTSN8aspeller11PhonetParmsE @1263 DATA
    _ZTSN8aspeller11SpellerImpl14ConfigNotifierE @1264 DATA
    _ZTSN8aspeller11SpellerImplE @1265 DATA
    _ZTSN8aspeller12BasicWordSetE @1266 DATA
    _ZTSN8aspeller12NoSoundslikeE @1267 DATA
    _ZTSN8aspeller12SuggestParmsE @1268 DATA
    _ZTSN8aspeller12WritableBaseINS_15WritableWordSetEEE @1269 DATA
    _ZTSN8aspeller12WritableBaseINS_22WritableReplacementSetEEE @1270 DATA
    _ZTSN8aspeller13BasicMultiSetE @1271 DATA
    _ZTSN8aspeller14SuggestionListE @1272 DATA
    _ZTSN8aspeller15LoadableDataSetE @1273 DATA
    _ZTSN8aspeller15PhonetParmsImplE @1274 DATA
    _ZTSN8aspeller15WritableDataSetE @1275 DATA
    _ZTSN8aspeller15WritableWordSetE @1276 DATA
    _ZTSN8aspeller16PhonetSoundslikeE @1277 DATA
    _ZTSN8aspeller16WritableBaseCodeE @1278 DATA
    _ZTSN8aspeller17GenericSoundslikeE @1279 DATA
    _ZTSN8aspeller19BasicReplacementSetE @1280 DATA
    _ZTSN8aspeller22WritableReplacementSetE @1281 DATA
    _ZTSN8aspeller23BasicWordSetEnumerationE @1282 DATA
    _ZTSN8aspeller7DataSetE @1283 DATA
    _ZTSN8aspeller7MultiWSE @1284 DATA
    _ZTSN8aspeller7SuggestE @1285 DATA
    _ZTSSs @1286 DATA
    _ZTSSt12_Vector_baseIcSaIcEE @1287 DATA
    _ZTSSt18_Vector_alloc_baseIcSaIcELb1EE @1288 DATA
    _ZTSSt6vectorIcSaIcEE @1289 DATA
    _ZTVN24aspeller_default_suggest11SuggestImplE @1290 DATA
    _ZTVN24aspeller_default_suggest18SuggestionListImplE @1291 DATA
    _ZTVN28aspeller_default_readonly_ws10ReadOnlyWS25SoundslikeWordsEmulSingleE @1292 DATA
    _ZTVN28aspeller_default_readonly_ws10ReadOnlyWSE @1293 DATA
    _ZTVN28aspeller_default_writable_wl10WritableWSE @1294 DATA
    _ZTVN30aspeller_default_writable_repl13WritableReplS19ElementsVirEmulImplE @1295 DATA
    _ZTVN30aspeller_default_writable_repl13WritableReplSE @1296 DATA
    _ZTVN7acommon10BetterListE @1297 DATA
    _ZTVN7acommon10BetterSizeE @1298 DATA
    _ZTVN7acommon10CharVectorE @1299 DATA
    _ZTVN7acommon10ConvDirectIcEE @1300 DATA
    _ZTVN7acommon10ConvDirectIjEE @1301 DATA
    _ZTVN7acommon10ConvDirectItEE @1302 DATA
    _ZTVN7acommon10DecodeUtf8E @1303 DATA
    _ZTVN7acommon10EncodeUtf8E @1304 DATA
    _ZTVN7acommon10SgmlFilterE @1305 DATA
    _ZTVN7acommon10StringListE @1306 DATA
    _ZTVN7acommon11EmailFilter10QuoteCharsE @1307 DATA
    _ZTVN7acommon11EmailFilterE @1308 DATA
    _ZTVN7acommon11SgmlDecoderE @1309 DATA
    _ZTVN7acommon11SgmlEncoderE @1310 DATA
    _ZTVN7acommon12CanHaveErrorE @1311 DATA
    _ZTVN7acommon12DecodeDirectIhEE @1312 DATA
    _ZTVN7acommon12DecodeDirectIjEE @1313 DATA
    _ZTVN7acommon12DecodeDirectItEE @1314 DATA
    _ZTVN7acommon12DecodeLookupE @1315 DATA
    _ZTVN7acommon12EncodeDirectIhEE @1316 DATA
    _ZTVN7acommon12EncodeDirectIjEE @1317 DATA
    _ZTVN7acommon12EncodeDirectItEE @1318 DATA
    _ZTVN7acommon12EncodeLookupE @1319 DATA
    _ZTVN7acommon13StringIStreamE @1320 DATA
    _ZTVN7acommon14TokenizerBasicE @1321 DATA
    _ZTVN7acommon14VirEnumerationIN8aspeller12LocalWordSetEEE @1322 DATA
    _ZTVN7acommon14VirEnumerationIN8aspeller13BasicWordInfoEEE @1323 DATA
    _ZTVN7acommon14VirEnumerationIN8aspeller14SoundslikeWordEEE @1324 DATA
    _ZTVN7acommon14VirEnumerationIN8aspeller15ReplacementListEEE @1325 DATA
    _ZTVN7acommon14VirEnumerationIPKcEE @1326 DATA
    _ZTVN7acommon14VirEnumerationIPN8aspeller7DataSetEEE @1327 DATA
    _ZTVN7acommon15DocumentCheckerE @1328 DATA
    _ZTVN7acommon16IndividualFilterE @1329 DATA
    _ZTVN7acommon16ModeNotifierImplE @1330 DATA
    _ZTVN7acommon16MutableContainerE @1331 DATA
    _ZTVN7acommon17StringEnumerationE @1332 DATA
    _ZTVN7acommon18KeyInfoEnumerationE @1333 DATA
    _ZTVN7acommon18MakeVirEnumerationIN24aspeller_default_suggest18SuggestionListImpl5ParmsENS_17StringEnumerationEEE @1334 DATA
    _ZTVN7acommon18MakeVirEnumerationIN28aspeller_default_readonly_ws10ReadOnlyWS13ElementsParmsENS_14VirEnumerationIN8aspeller13BasicWordInfoEEEEE @1335 DATA
    _ZTVN7acommon18MakeVirEnumerationIN28aspeller_default_readonly_ws10ReadOnlyWS20SoundslikeWordsParmsENS_14VirEnumerationIN8aspeller13BasicWordInfoEEEEE @1336 DATA
    _ZTVN7acommon18MakeVirEnumerationIN28aspeller_default_readonly_ws10ReadOnlyWS23SoundslikeElementsParmsENS_14VirEnumerationIN8aspeller14SoundslikeWordEEEEE @1337 DATA
    _ZTVN7acommon18MakeVirEnumerationIN28aspeller_default_readonly_ws10ReadOnlyWS24SoundslikeWordsParmsNoSLENS_14VirEnumerationIN8aspeller13BasicWordInfoEEEEE @1338 DATA
    _ZTVN7acommon18MakeVirEnumerationIN28aspeller_default_readonly_ws10ReadOnlyWS27SoundslikeElementsParmsNoSLENS_14VirEnumerationIN8aspeller14SoundslikeWordEEEEE @1339 DATA
    _ZTVN7acommon18MakeVirEnumerationIN28aspeller_default_writable_wl10WritableWS13ElementsParmsENS_14VirEnumerationIN8aspeller13BasicWordInfoEEEEE @1340 DATA
    _ZTVN7acommon18MakeVirEnumerationIN28aspeller_default_writable_wl10WritableWS20SoundslikeWordsParmsENS_14VirEnumerationIN8aspeller13BasicWordInfoEEEEE @1341 DATA
    _ZTVN7acommon18MakeVirEnumerationIN28aspeller_default_writable_wl10WritableWS23SoundslikeElementsParmsENS_14VirEnumerationIN8aspeller14SoundslikeWordEEEEE @1342 DATA
    _ZTVN7acommon18MakeVirEnumerationIN30aspeller_default_writable_repl13WritableReplS21ReplsWSoundslikeParmsENS_14VirEnumerationIN8aspeller15ReplacementListEEEEE @1343 DATA
    _ZTVN7acommon18MakeVirEnumerationIN30aspeller_default_writable_repl13WritableReplS23SoundslikeElementsParmsENS_14VirEnumerationIN8aspeller14SoundslikeWordEEEEE @1344 DATA
    _ZTVN7acommon18MakeVirEnumerationIN8aspeller11SpellerImpl17DataSetCollection5ParmsENS_14VirEnumerationIPNS1_7DataSetEEEEE @1345 DATA
    _ZTVN7acommon18MakeVirEnumerationIN8aspeller7MultiWS13ElementsParmsENS_14VirEnumerationINS1_12LocalWordSetEEEEE @1346 DATA
    _ZTVN7acommon18MakeVirEnumerationIN8aspeller8StrParmsIN9__gnu_cxx17__normal_iteratorIPKNS_6StringESt6vectorIS5_SaIS5_EEEEEENS_14VirEnumerationIPKcEEEE @1347 DATA
    _ZTVN7acommon19DictInfoEnumerationE @1348 DATA
    _ZTVN7acommon20PossibleElementsEmulE @1349 DATA
    _ZTVN7acommon20StringMapEnumerationE @1350 DATA
    _ZTVN7acommon21ModuleInfoEnumerationE @1351 DATA
    _ZTVN7acommon21NotifyListBlockChangeE @1352 DATA
    _ZTVN7acommon21StringListEnumerationE @1353 DATA
    _ZTVN7acommon21StringPairEnumerationE @1354 DATA
    _ZTVN7acommon24MakeAlwaysEndEnumerationIN8aspeller13BasicWordInfoEEE @1355 DATA
    _ZTVN7acommon24MakeAlwaysEndEnumerationIN8aspeller15ReplacementListEEE @1356 DATA
    _ZTVN7acommon6BetterE @1357 DATA
    _ZTVN7acommon6ConfigE @1358 DATA
    _ZTVN7acommon6FilterE @1359 DATA
    _ZTVN7acommon6StringE @1360 DATA
    _ZTVN7acommon7ExtsMapE @1361 DATA
    _ZTVN7acommon7FStreamE @1362 DATA
    _ZTVN7acommon7IStreamE @1363 DATA
    _ZTVN7acommon7OStreamE @1364 DATA
    _ZTVN7acommon7SpellerE @1365 DATA
    _ZTVN7acommon8ListDumpE @1366 DATA
    _ZTVN7acommon8NotifierE @1367 DATA
    _ZTVN7acommon8WordListE @1368 DATA
    _ZTVN7acommon9StringMapE @1369 DATA
    _ZTVN7acommon9TexFilter8CommandsE @1370 DATA
    _ZTVN7acommon9TexFilterE @1371 DATA
    _ZTVN7acommon9TokenizerE @1372 DATA
    _ZTVN7acommon9UrlFilterE @1373 DATA
    _ZTVN8aspeller10SoundslikeE @1374 DATA
    _ZTVN8aspeller11PhonetParmsE @1375 DATA
    _ZTVN8aspeller11SpellerImpl14ConfigNotifierE @1376 DATA
    _ZTVN8aspeller11SpellerImplE @1377 DATA
    _ZTVN8aspeller12BasicWordSetE @1378 DATA
    _ZTVN8aspeller12NoSoundslikeE @1379 DATA
    _ZTVN8aspeller12SuggestParmsE @1380 DATA
    _ZTVN8aspeller12WritableBaseINS_15WritableWordSetEEE @1381 DATA
    _ZTVN8aspeller12WritableBaseINS_22WritableReplacementSetEEE @1382 DATA
    _ZTVN8aspeller15LoadableDataSetE @1383 DATA
    _ZTVN8aspeller15PhonetParmsImplE @1384 DATA
    _ZTVN8aspeller15WritableWordSetE @1385 DATA
    _ZTVN8aspeller16PhonetSoundslikeE @1386 DATA
    _ZTVN8aspeller16WritableBaseCodeE @1387 DATA
    _ZTVN8aspeller17GenericSoundslikeE @1388 DATA
    _ZTVN8aspeller22WritableReplacementSetE @1389 DATA
    _ZTVN8aspeller23BasicWordSetEnumerationE @1390 DATA
    _ZTVN8aspeller7DataSetE @1391 DATA
    _ZTVN8aspeller7MultiWSE @1392 DATA
    _ZTVN8aspeller7SuggestE @1393 DATA
    _ZThn40_N28aspeller_default_readonly_ws10ReadOnlyWSD0Ev @1394
    _ZThn40_N28aspeller_default_readonly_ws10ReadOnlyWSD1Ev @1395
    _ZThn40_N28aspeller_default_writable_wl10WritableWSD0Ev @1396
    _ZThn40_N28aspeller_default_writable_wl10WritableWSD1Ev @1397
    _ZThn40_N30aspeller_default_writable_repl13WritableReplS5clearEv @1398
    _ZThn40_N8aspeller12BasicWordSetD0Ev @1399
    _ZThn40_N8aspeller12BasicWordSetD1Ev @1400
    _ZThn40_N8aspeller12WritableBaseINS_15WritableWordSetEED0Ev @1401
    _ZThn40_N8aspeller12WritableBaseINS_15WritableWordSetEED1Ev @1402
    _ZThn40_N8aspeller12WritableBaseINS_22WritableReplacementSetEE11synchronizeEv @1403
    _ZThn40_N8aspeller12WritableBaseINS_22WritableReplacementSetEE13save_noupdateEv @1404
    _ZThn40_N8aspeller12WritableBaseINS_22WritableReplacementSetEE5mergeEN7acommon10ParmStringE @1405
    _ZThn40_N8aspeller12WritableBaseINS_22WritableReplacementSetEE7save_asEN7acommon10ParmStringE @1406
    _ZThn40_N8aspeller15WritableWordSetD0Ev @1407
    _ZThn40_N8aspeller15WritableWordSetD1Ev @1408
    _ZThn40_N8aspeller7MultiWSD0Ev @1409
    _ZThn40_N8aspeller7MultiWSD1Ev @1410
    _ZThn40_NK28aspeller_default_readonly_ws10ReadOnlyWS4sizeEv @1411
    _ZThn40_NK28aspeller_default_readonly_ws10ReadOnlyWS5emptyEv @1412
    _ZThn40_NK28aspeller_default_writable_wl10WritableWS4sizeEv @1413
    _ZThn40_NK28aspeller_default_writable_wl10WritableWS5emptyEv @1414
    _ZThn40_NK8aspeller12BasicWordSet5emptyEv @1415
    _ZThn40_NK8aspeller12BasicWordSet8elementsEv @1416
    _ZThn40_NK8aspeller13BasicMultiSet5emptyEv @1417
    _ZThn40_NK8aspeller13BasicMultiSet8elementsEv @1418
    _ZThn40_NK8aspeller7MultiWS4sizeEv @1419
    _ZThn44_N30aspeller_default_writable_repl13WritableReplS4saveERN7acommon7FStreamENS1_10ParmStringE @1420
    _ZThn44_N30aspeller_default_writable_repl13WritableReplS5mergeERN7acommon7FStreamENS1_10ParmStringEPNS1_6ConfigE @1421
    _ZThn44_N30aspeller_default_writable_repl13WritableReplSD0Ev @1422
    _ZThn44_N30aspeller_default_writable_repl13WritableReplSD1Ev @1423
    _ZThn44_N8aspeller12WritableBaseINS_22WritableReplacementSetEE13set_file_nameEN7acommon10ParmStringE @1424
    _ZThn44_N8aspeller12WritableBaseINS_22WritableReplacementSetEE16update_file_infoERN7acommon7FStreamE @1425
    _ZThn44_N8aspeller12WritableBaseINS_22WritableReplacementSetEE9file_nameEv @1426
    _ZThn44_N8aspeller12WritableBaseINS_22WritableReplacementSetEED0Ev @1427
    _ZThn44_N8aspeller12WritableBaseINS_22WritableReplacementSetEED1Ev @1428
    _ZThn48_N28aspeller_default_writable_wl10WritableWS5clearEv @1429
    _ZThn48_N8aspeller12WritableBaseINS_15WritableWordSetEE11synchronizeEv @1430
    _ZThn48_N8aspeller12WritableBaseINS_15WritableWordSetEE13save_noupdateEv @1431
    _ZThn48_N8aspeller12WritableBaseINS_15WritableWordSetEE5mergeEN7acommon10ParmStringE @1432
    _ZThn48_N8aspeller12WritableBaseINS_15WritableWordSetEE7save_asEN7acommon10ParmStringE @1433
    _ZThn52_N28aspeller_default_writable_wl10WritableWS4saveERN7acommon7FStreamENS1_10ParmStringE @1434
    _ZThn52_N28aspeller_default_writable_wl10WritableWS5mergeERN7acommon7FStreamENS1_10ParmStringEPNS1_6ConfigE @1435
    _ZThn52_N28aspeller_default_writable_wl10WritableWSD0Ev @1436
    _ZThn52_N28aspeller_default_writable_wl10WritableWSD1Ev @1437
    _ZThn52_N8aspeller12WritableBaseINS_15WritableWordSetEE13set_file_nameEN7acommon10ParmStringE @1438
    _ZThn52_N8aspeller12WritableBaseINS_15WritableWordSetEE16update_file_infoERN7acommon7FStreamE @1439
    _ZThn52_N8aspeller12WritableBaseINS_15WritableWordSetEE9file_nameEv @1440
    _ZThn52_N8aspeller12WritableBaseINS_15WritableWordSetEED0Ev @1441
    _ZThn52_N8aspeller12WritableBaseINS_15WritableWordSetEED1Ev @1442
    _ZThn8_N7acommon7FStream5writeENS_10ParmStringE @1443
    _ZThn8_N7acommon7FStream5writeEPKcj @1444
    _ZThn8_N7acommon7FStream5writeEc @1445
    _ZThn8_N7acommon7FStreamD0Ev @1446
    _ZThn8_N7acommon7FStreamD1Ev @1447
    aerror_bad_file_format @1448 DATA
    aerror_bad_input @1449 DATA
    aerror_bad_key @1450 DATA
    aerror_bad_value @1451 DATA
    aerror_cant_change_value @1452 DATA
    aerror_cant_copy @1453 DATA
    aerror_cant_create_pipe @1454 DATA
    aerror_cant_open_file @1455 DATA
    aerror_cant_read_dir @1456 DATA
    aerror_cant_read_file @1457 DATA
    aerror_cant_write_file @1458 DATA
    aerror_config @1459 DATA
    aerror_conflicting_flags @1460 DATA
    aerror_conversion_not_supported @1461 DATA
    aerror_dir @1462 DATA
    aerror_duplicate @1463 DATA
    aerror_encoding @1464 DATA
    aerror_encoding_not_supported @1465 DATA
    aerror_file @1466 DATA
    aerror_invalid_flag @1467 DATA
    aerror_invalid_name @1468 DATA
    aerror_invalid_word @1469 DATA
    aerror_language_not_supported @1470 DATA
    aerror_language_related @1471 DATA
    aerror_mismatched_language @1472 DATA
    aerror_no_wordlist_for_lang @1473 DATA
    aerror_operation_not_supported @1474 DATA
    aerror_other @1475 DATA
    aerror_pipe @1476 DATA
    aerror_process_died @1477 DATA
    aerror_unknown_encoding @1478 DATA
    aerror_unknown_key @1479 DATA
    aerror_unknown_language @1480 DATA
    aerror_unknown_soundslike @1481 DATA
    aerror_word_list_flags @1482 DATA
    aspell_config_assign @1483
    aspell_config_clone @1484
    aspell_config_elements @1485
    aspell_config_error @1486
    aspell_config_error_message @1487
    aspell_config_error_number @1488
    aspell_config_get_default @1489
    aspell_config_have @1490
    aspell_config_keyinfo @1491
    aspell_config_possible_elements @1492
    aspell_config_remove @1493
    aspell_config_replace @1494
    aspell_config_retrieve @1495
    aspell_config_retrieve_bool @1496
    aspell_config_retrieve_int @1497
    aspell_config_retrieve_list @1498
    aspell_config_set_extra @1499
    aspell_dict_info_enumeration_assign @1500
    aspell_dict_info_enumeration_at_end @1501
    aspell_dict_info_enumeration_clone @1502
    aspell_dict_info_enumeration_next @1503
    aspell_dict_info_list_elements @1504
    aspell_dict_info_list_empty @1505
    aspell_dict_info_list_size @1506
    aspell_document_checker_error @1507
    aspell_document_checker_error_message @1508
    aspell_document_checker_error_number @1509
    aspell_document_checker_filter @1510
    aspell_document_checker_next_misspelling @1511
    aspell_document_checker_process @1512
    aspell_document_checker_reset @1513
    aspell_error @1514
    aspell_error_is_a @1515
    aspell_error_message @1516
    aspell_error_number @1517
    aspell_filter_error @1518
    aspell_filter_error_message @1519
    aspell_filter_error_number @1520
    aspell_key_info_enumeration_assign @1521
    aspell_key_info_enumeration_at_end @1522
    aspell_key_info_enumeration_clone @1523
    aspell_key_info_enumeration_next @1524
    aspell_module_info_enumeration_assign @1525
    aspell_module_info_enumeration_at_end @1526
    aspell_module_info_enumeration_clone @1527
    aspell_module_info_enumeration_next @1528
    aspell_module_info_list_elements @1529
    aspell_module_info_list_empty @1530
    aspell_module_info_list_size @1531
    aspell_mutable_container_add @1532
    aspell_mutable_container_clear @1533
    aspell_mutable_container_remove @1534
    aspell_mutable_container_to_mutable_container @1535
    aspell_speller_add_to_personal @1536
    aspell_speller_add_to_session @1537
    aspell_speller_check @1538
    aspell_speller_clear_session @1539
    aspell_speller_config @1540
    aspell_speller_error @1541
    aspell_speller_error_message @1542
    aspell_speller_error_number @1543
    aspell_speller_main_word_list @1544
    aspell_speller_personal_word_list @1545
    aspell_speller_save_all_word_lists @1546
    aspell_speller_session_word_list @1547
    aspell_speller_store_replacement @1548
    aspell_speller_suggest @1549
    aspell_string_enumeration_assign @1550
    aspell_string_enumeration_at_end @1551
    aspell_string_enumeration_clone @1552
    aspell_string_enumeration_next @1553
    aspell_string_list_add @1554
    aspell_string_list_assign @1555
    aspell_string_list_clear @1556
    aspell_string_list_clone @1557
    aspell_string_list_elements @1558
    aspell_string_list_empty @1559
    aspell_string_list_remove @1560
    aspell_string_list_size @1561
    aspell_string_list_to_mutable_container @1562
    aspell_string_map_add @1563
    aspell_string_map_assign @1564
    aspell_string_map_clear @1565
    aspell_string_map_clone @1566
    aspell_string_map_elements @1567
    aspell_string_map_empty @1568
    aspell_string_map_insert @1569
    aspell_string_map_lookup @1570
    aspell_string_map_remove @1571
    aspell_string_map_replace @1572
    aspell_string_map_size @1573
    aspell_string_map_to_mutable_container @1574
    aspell_string_pair_enumeration_assign @1575
    aspell_string_pair_enumeration_at_end @1576
    aspell_string_pair_enumeration_clone @1577
    aspell_string_pair_enumeration_next @1578
    aspell_word_list_elements @1579
    aspell_word_list_empty @1580
    aspell_word_list_size @1581
    closedir @1582
    delete_aspell_can_have_error @1583
    delete_aspell_config @1584
    delete_aspell_dict_info_enumeration @1585
    delete_aspell_document_checker @1586
    delete_aspell_filter @1587
    delete_aspell_key_info_enumeration @1588
    delete_aspell_module_info_enumeration @1589
    delete_aspell_speller @1590
    delete_aspell_string_enumeration @1591
    delete_aspell_string_list @1592
    delete_aspell_string_map @1593
    delete_aspell_string_pair_enumeration @1594
    get_aspell_dict_info_list @1595
    get_aspell_module_info_list @1596
    libaspell_speller_default_LTX_new_speller_class @1597
    new_aspell_config @1598
    new_aspell_document_checker @1599
    new_aspell_speller @1600
    new_aspell_string_list @1601
    new_aspell_string_map @1602
    opendir @1603
    readdir @1604
    rewinddir @1605
    seekdir @1606
    strtoimax @1607
    strtoll @1608 DATA
    strtoull @1609 DATA
    strtoumax @1610
    telldir @1611
    to_aspell_document_checker @1612
    to_aspell_filter @1613
    to_aspell_speller @1614
